*****************************************
Assembler and Date    : version 6.1: (11-10-21)
Program size          : 16272
----------
Asm  file name        : MasterControl.asm
List file name        : MasterControl.lst
----------
       Hex  file name : MasterControl.hex
       COE  file name : MasterControl.coe
       MEM  file name : MasterControl.mem
Altera Mif  file name : MasterControl_alt.mif
Xilinx Mif  file name : MasterControl_xil.mif
*****************************************

Labels and Defines:
      ADC_DELAY: 0032 
      BASEREGIO: 0100 
      BOOT_ADDR: 3f00 
         BSLASH: 005c 
           BTNC: 0004 
           BTND: 0001 
           BTNL: 0002 
           BTNR: 0008 
           BTNU: 0010 
       CHARFILL: 002d 
             CR: 000d 
           CTLD: 0004 
           CTLE: 0005 
           CTLI: 0009 
           CTLL: 000c 
           CTLP: 0010 
           CTLR: 0012 
           CTLS: 0013 
           CTLX: 0003 
           CTLZ: 001a 
           CTL_: 001f 
           DATE: 0123 
         ERL_IX: 0005 
          ER_IX: 0003 
            ESC: 001b 
            ETX: 0003 
             FF: 000c 
         FSLASH: 002f 
       GPREG_00: 0000 
       GPREG_01: 0001 
       GPREG_02: 0002 
       GPREG_03: 0003 
       GPREG_04: 0004 
       GPREG_05: 0005 
       GPREG_06: 0006 
       GPREG_07: 0007 
       GPREG_08: 0008 
       GPREG_09: 0009 
       GPREG_0A: 000a 
       GPREG_0B: 000b 
       GPREG_0C: 000c 
       GPREG_0D: 000d 
       GPREG_0E: 000e 
       GPREG_0F: 000f 
        HIGHSEC: 017d 
           HOUR: 0000 
     IBASEREGIO: 0100 
         IRL_IX: 0004 
          IR_IX: 0002 
       IR_IX_LN: 0001 
             LF: 000a 
         LOWSEC: 7840 
      MAIN_ADDR: 0010 
         MINUTE: 0000 
          MONTH: 0004 
           NULL: 0000 
        NUMFILL: 0005 
      PCODE_MSK: 0002 
      PCODE_NSK: fffd 
          POUND: 0023 
     RESET_ADDR: 0000 
         RXDVLD: 0080 
         RXEMPT: 0002 
          RXERR: 0008 
         RXFULL: 0004 
        S1REG_0: 0100 
        S1REG_1: 0101 
        S1REG_2: 0102 
        S1REG_3: 0103 
        S1REG_4: 0104 
        S1REG_5: 0105 
        S1REG_6: 0106 
        S1REG_7: 0107 
        S1REG_8: 0108 
        S1REG_9: 0109 
        S1REG_a: 010a 
        S1REG_b: 010b 
        S1REG_c: 010c 
        S1REG_d: 010d 
        S1REG_e: 010e 
        S1REG_f: 010f 
        S2REG_0: 0110 
        S2REG_1: 0111 
        S2REG_2: 0112 
        S2REG_3: 0113 
        S2REG_4: 0114 
        S2REG_5: 0115 
        S2REG_6: 0116 
        S2REG_7: 0117 
        S2REG_8: 0118 
        S2REG_9: 0119 
        S2REG_a: 011a 
        S2REG_b: 011b 
        S2REG_c: 011c 
        S2REG_d: 011d 
        S2REG_e: 011e 
        S2REG_f: 011f 
        S3REG_0: 0120 
        S3REG_1: 0121 
        S3REG_2: 0122 
        S3REG_3: 0123 
        S3REG_4: 0124 
        S3REG_5: 0125 
        S3REG_6: 0126 
        S3REG_7: 0127 
        S3REG_8: 0128 
        S3REG_9: 0129 
        S3REG_a: 012a 
        S3REG_b: 012b 
        S3REG_c: 012c 
        S3REG_d: 012d 
        S3REG_e: 012e 
        S3REG_f: 012f 
        S4REG_0: 0130 
        S4REG_1: 0131 
        S4REG_2: 0132 
        S4REG_3: 0133 
        S4REG_4: 0134 
        S4REG_5: 0135 
        S4REG_6: 0136 
        S4REG_7: 0137 
        S4REG_8: 0138 
        S4REG_9: 0139 
        S4REG_a: 013a 
        S4REG_b: 013b 
        S4REG_c: 013c 
        S4REG_d: 013d 
        S4REG_e: 013e 
        S4REG_f: 013f 
      SCOPE_MSK: 3000 
      SCOPE_NSK: cfff 
        SECONDS: 0000 
         SIGNED: 8000 
            SPC: 0020 
          SR_IX: 0000 
   STACK_LENGTH: 0040 
     TARGET_MSK: 0001 
     TARGET_NSK: fffe 
            TP1: 0001 
          TP1_2: 0011 
            TP2: 0010 
      TRIGS_MSK: c000 
      TRIGS_NSK: 3fff 
         TXEMPT: 0020 
         TXFULL: 0040 
        UARTDAT: 0010 
       UARTDAT2: 0014 
        UARTSTA: 0011 
       UARTSTA2: 0015 
          UNDER: 005f 
           YEAR: 2024 
        a_geta1: 0252 
        a_geta2: 0258 
       a_getadr: 024f 
       a_getend: 0280 
        a_getex: 027e 
       a_getmem: 0271 
       a_getval: 0262 
         a_ones: 02b5 
         a_quit: 0352 
       a_regdat: 02a0 
       a_setadd: 0286 
      a_setadd2: 029f 
           a_w1: 02d9 
           a_w2: 02ea 
           a_w3: 02fc 
           a_w4: 030d 
           a_w5: 0320 
           a_w6: 032a 
           a_w7: 0334 
           a_w8: 033e 
           a_w9: 034b 
         a_wend: 034c 
        a_wrout: 02c9 
        a_wrval: 02ba 
       a_wrval1: 02a3 
       a_wrval2: 02a8 
         adc0_m: 0bf2 
         adc1_m: 0bfc 
         adc2_m: 0c06 
         adc3_m: 0c10 
         adc4_m: 0c1f 
         an_cnt: 29fa 
       appset_m: 13cd 
         apptab: 29ee 
        asc2dec: 06bf 
       asc2dec1: 06c1 
       asc2dec2: 06d0 
       asc2dec3: 06e1 
        asc2hex: 068e 
       asc2hex1: 0691 
       asc2hex2: 06b1 
       asc2hex3: 0694 
       asc2hex4: 069d 
       asc2hex9: 06b8 
       asc2hexa: 06be 
          bitop: 2a07 
        boot_ch: 3f08 
        boot_fh: 3f1a 
         boot_p: 3f03 
        boot_p0: 3f1c 
        boot_p1: 3f1e 
        boot_p2: 3f21 
        boot_p3: 3f22 
        boot_p4: 3f36 
       boot_p4b: 3f42 
        boot_p5: 3f4a 
        boot_p6: 3f4e 
        boot_p7: 3f50 
         boot_r: 3f60 
        boot_r1: 3f64 
        boot_r2: 3f67 
        boot_r3: 3f76 
        boot_r4: 3f80 
   bootlength_m: 0a23 
      buff_addr: 2a0f 
     buff_addrx: 2a11 
       buff_inc: 2a13 
       buff_len: 2a10 
     buff_value: 2a12 
       check100: 0718 
         check4: 0712 
       check400: 0720 
        chkstat: 0498 
        chome_m: 0c76 
         clrval: 0248 
          cls_m: 0c71 
       clscreen: 012a 
        cmdbuff: 2a50 
   codelength_m: 09f7 
        colon_m: 0be8 
        cvalue1: 2a00 
        cvalue2: 2a01 
       d7s_adc0: 0849 
       d7s_adc1: 0856 
       d7s_adc2: 0863 
       d7s_adc3: 086d 
       d7s_adc4: 0877 
       d7s_adcx: 087f 
      d7s_clock: 0830 
     d7s_clock1: 0832 
     d7s_clock2: 083c 
     d7s_clock4: 0844 
       d_appset: 0141 
        d_areg1: 01bd 
        d_aregs: 01b3 
         d_base: 0238 
        d_debug: 0153 
       d_debugq: 014d 
         d_help: 0159 
      d_help_io: 0163 
        d_helpa: 016d 
        d_helpd: 0181 
        d_helps: 0177 
     d_io_areg1: 01e0 
     d_io_areg2: 01f8 
     d_io_aregs: 01d0 
         d_mema: 020b 
         d_memb: 0225 
      d_membyte: 022f 
        d_memof: 021e 
        d_memon: 0218 
      d_memword: 0231 
         d_menu: 013b 
      d_nothing: 018f 
      d_pagenum: 05c6 
     d_pagenum2: 05ca 
     d_pagenum3: 05d1 
        d_pcode: 0593 
       d_prgver: 00d2 
      d_regdump: 0190 
      d_rtcmode: 0113 
       d_rtcval: 0116 
      d_rtcval1: 0117 
      d_rtcval2: 0124 
       d_setled: 00c1 
       d_switch: 00b2 
       d_sysset: 0147 
    d_targetrst: 0574 
   d_targetrst2: 057e 
       d_txpage: 018b 
      d_walking: 009e 
         d_xadc: 0090 
   datalength_m: 0a0d 
        dbugptr: 2a30 
       dbugptr1: 2a38 
       dbugptr2: 2a40 
       dbugrows: 2a27 
        debug_m: 0fd8 
       debugq_m: 0e60 
        dec2asc: 0652 
        dec2hex: 0640 
       dec2hex1: 0645 
       dec2hex2: 0651 
     dec2hextab: 2a48 
      decval4_m: 0b77 
          delay: 05d2 
         delay1: 05d3 
      delimeter: 2a08 
           dig1: 074a 
         dig1_0: 0750 
           dig2: 0756 
         dig2_0: 0760 
           dig3: 0767 
         dig3_0: 0771 
           dig4: 0777 
         dig4_0: 077d 
    dig7seg_tab: 0c7a 
         digit1: 29fb 
         digit2: 29fc 
        digitdp: 29fd 
      dis_xadc0: 088e 
      dis_xadc1: 089d 
      dis_xadc2: 08ac 
      dis_xadc3: 08bb 
      dis_xadc4: 08ca 
       disdigit: 049e 
        dishex2: 04be 
        dishex4: 04b0 
        dishexs: 04a5 
         divend: 05f5 
       division: 05ed 
       divstart: 05ee 
         done_m: 0a6d 
       e_wrval1: 02a7 
       e_wrval2: 02b9 
      enbfile_m: 0b8f 
       end_boot: 3f55 
       end_loop: 3f5b 
       fg_blk_m: 0c41 
       fg_blu_m: 0c59 
       fg_cya_m: 0c65 
       fg_grn_m: 0c4d 
       fg_mag_m: 0c5f 
       fg_red_m: 0c47 
       fg_wht_m: 0c6b 
       fg_yel_m: 0c53 
      get_xadc0: 08fd 
      get_xadc1: 0934 
      get_xadc2: 0957 
      get_xadc3: 097a 
         h2btab: 0c26 
        help_io: 178a 
         help_m: 1549 
        helpa_m: 1c67 
        helpd_m: 237d 
        helps_m: 1fb2 
           hex1: 065b 
        hex1val: 29fe 
           hex2: 0669 
        hex2asc: 0652 
        hex2dec: 0616 
       hex2dec1: 061c 
       hex2dec2: 0634 
        hex2val: 29ff 
          hex_m: 0a73 
      hexval2_m: 0b1a 
      hexval4_m: 0b36 
      hexval8_m: 0b54 
        hw_irq1: 072e 
        hw_irq2: 0731 
      hw_irq2_1: 0732 
        hw_irq3: 0734 
      hw_irq3_0: 078c 
      hw_irq3_1: 0796 
      hw_irq3_2: 0797 
        hw_irq4: 0798 
      hw_irq4_1: 0822 
      hw_irq4_2: 0820 
      hw_irq4_3: 081e 
      hw_irq4_4: 081b 
      hw_irq4_5: 0819 
     hw_irq4_d1: 07e4 
     hw_irq4_h1: 07d3 
     hw_irq4_m1: 07f2 
     hw_irq4_m2: 0805 
     hw_irq4_s1: 07b1 
     hw_irq4_u1: 07c2 
     hw_irq4_y1: 0817 
    hwversion_m: 09e1 
     init_xterm: 058e 
        initx_m: 0c36 
        inpaddr: 2a03 
        inpchar: 2a02 
        input_m: 0aa7 
       intdelay: 05d7 
      intdelay1: 05da 
      intdelay2: 05de 
    ipversion_m: 0a39 
        iregptr: 2a0e 
         irq1_v: 0002 
         irq2_v: 0004 
         irq3_v: 0006 
         irq4_v: 0008 
        irq_dis: 05c3 
        irq_enb: 05c0 
        irq_set: 05b5 
        irqmask: 2a19 
          is_ly: 0728 
       jmp_boot: 05ab 
         kpst00: 0c8a 
         kpst10: 0ca6 
         kpst20: 0d12 
         kpst30: 0d1e 
         kpst40: 0d62 
      leap_year: 070e 
        leapend: 072d 
       leapyear: 2a25 
         line_m: 0a83 
     loadfile_m: 0bb1 
          lyear: 099d 
        lyear_e: 09b7 
        lyear_n: 09b5 
         m_cols: 2a1e 
         m_rows: 2a1d 
           main: 0051 
          main2: 005a 
          main3: 0065 
          main4: 0068 
          main5: 006c 
          main6: 0074 
          main7: 007c 
        main7_1: 0085 
          main8: 008c 
         memacc: 2a0b 
      membyte_m: 0af2 
        memdum4: 03b7 
       memdumb1: 038d 
       memdumb2: 0396 
        memdump: 035d 
       memdump0: 035f 
       memdumw1: 0369 
       memdumw2: 0373 
        memfill: 03e7 
       memfill2: 0402 
       memfill3: 0409 
       memfill4: 0412 
         memlen: 03da 
        memnext: 0356 
         memode: 2a0a 
        memof_m: 0ac2 
        memon_m: 0ada 
          memop: 2a0c 
         memptr: 29f7 
     memptrlast: 29f8 
      memword_m: 0b06 
           menu: 0dce 
        month28: 06f3 
        month29: 06ef 
        month30: 0703 
        month31: 06ff 
       monthchk: 06e2 
      monthchk0: 06f7 
      monthchk1: 0707 
    monthchkend: 070d 
        multend: 05ec 
       multiply: 05df 
      multiply1: 05e2 
      multiply2: 05e7 
          myapp: 0827 
      myapp_val: 2a26 
           no_m: 0a54 
         not_ly: 072c 
      not_yet_m: 0a58 
        nothing: 082f 
        outdata: 2a04 
         outdig: 0782 
       output_m: 0ab4 
         p_jump: 0439 
         p_rest: 043f 
         p_save: 0435 
       pattern1: 29f9 
       pattern2: 2a06 
          pjump: 2a1c 
       prn_xadc: 08ee 
       prog_cnt: 3f8f 
       prog_lng: 3f8e 
         prompt: 0bed 
       promptcr: 0bf0 
       promptlf: 0bee 
       promptx2: 0beb 
         r_cols: 2a15 
         r_rows: 2a14 
        rd_once: 04d9 
       rd_once2: 04e3 
         rdchar: 04ce 
         rdmemb: 039d 
         rdmemw: 037a 
      ref7seg_2: 0743 
      ref7seg_3: 0744 
     refreshdis: 0734 
        regdum1: 01a0 
        regdum2: 01a8 
        regdump: 019f 
         regptr: 2a0d 
        reset_v: 0000 
        rtcdump: 011b 
        s_bitop: 0243 
       s_bitop1: 0246 
          sesma: 0416 
       set_cmem: 0558 
       set_creg: 053c 
       set_rmem: 0566 
       set_rreg: 054a 
     set_varchk: 052e 
        setdate: 04fa 
        sethour: 0505 
         setmin: 0515 
       setmonth: 04ef 
         setsec: 0523 
          setup: 0010 
        setyear: 04e4 
          ssm_1: 041a 
          ssm_2: 0427 
        ssm_end: 0443 
       ssm_exec: 0448 
        ssm_lst: 2a1b 
        ssm_pst: 2a1a 
          stack: 2ad0 
        sw_irq1: 0826 
       sysset_m: 1207 
          temp0: 2a09 
       tempvar1: 2a90 
       tempvar2: 2ab0 
       tmr1date: 2a21 
       tmr1hour: 2a22 
        tmr1min: 2a23 
      tmr1month: 2a20 
       tmr1msec: 2a17 
        tmr1sec: 2a24 
      tmr1value: 2a18 
       tmr1year: 2a1f 
         tohex2: 066e 
        tohex21: 067b 
        tohex22: 0689 
       treset_m: 0bc1 
        tx_char: 044e 
        tx_ends: 0473 
        tx_fill: 0459 
        tx_line: 0449 
       tx_line2: 0449 
         tx_nxt: 0465 
        tx_nxt2: 046b 
        tx_page: 0474 
       tx_page2: 0474 
        tx_prmt: 048e 
      tx_prmtcr: 0484 
      tx_prmtlf: 0489 
      tx_prmtx2: 0493 
       uartstat: 2a05 
         varchk: 2a0f 
        vardum1: 03c1 
        vardum2: 03ca 
        vardump: 03ba 
       vardump0: 03bd 
      version_m: 09bc 
        walking: 08d9 
       walking1: 08e9 
         wpst00: 0d8e 
         wpst01: 0d9a 
         wpst02: 0db6 
         wpst03: 0dc2 
        xadcreg: 2a28 
          yes_m: 0a4f 
     zboot_addr: 3f00 
      zend_code: 29f6 
       zend_ram: 2b10 
*****************************************
Opcode listing.

0000   0039   reset_v: jmp setup ; 
0001   0010
0002   0039   irq1_v: jmp hw_irq1 ; 
0003   072e
0004   0039   irq2_v: jmp hw_irq2 ; 
0005   0731
0006   0039   irq3_v: jmp hw_irq3 ; 
0007   0734
0008   0039   irq4_v: jmp hw_irq4 ; 
0009   0798
0010   0046   setup: cli ;
0011   0a2e   ldpv pA,UARTDAT ; 
0012   0010
0013   0b2e   ldpv pB,UARTSTA ;
0014   0011
0015   0f2e   ldpv pF,stack ; 
0016   2ad0
0017   0d2e   ldpv pD,dbugptr ; 
0018   2a30
0019   0121   ldrv r1,kpst00 ; 
001a   0c8a
001b   1028   str r1,ssm_pst ; 
001c   2a1a
001d   1028   str r1,ssm_lst ; 
001e   2a1b
001f   0121   ldrv r1,0 ; 
0020   0000
0021   1034   outp r1,GPREG_00 ; 
0022   0000
0023   1034   outp r1,GPREG_01 ; 
0024   0001
0025   1034   outp r1,GPREG_04 ; 
0026   0004
0027   0121   ldrv r1,zend_code ; 
0028   29f6
0029   1034   outp r1,GPREG_02 ; 
002a   0002
002b   0121   ldrv r1,zend_ram ; 
002c   2b10
002d   1034   outp r1,GPREG_03 ; 
002e   0003
002f   0121   ldrv r1,'h0002 ; 
0030   0002
0031   1034   outp r1,GPREG_07 ; 
0032   0007
0033   0121   ldrv r1,LOWSEC ; 
0034   7840
0035   1034   outp r1,GPREG_05 ; 
0036   0005
0037   0121   ldrv r1,HIGHSEC ; 
0038   017d
0039   1034   outp r1,GPREG_06 ; 
003a   0006
003b   023e   uflag f2 ; 
003c   053e   uflag f5 ; 
003d   063e   uflag f6 ; 
003e   8a3e   uflag tA ; 
003f   0b3e   uflag fB ; 
0040   0c3e   uflag fC ; 
0041   0d3e   uflag fD ; 
0042   043f   uport f4 ; 
0043   083f   uport f8 ; 
0044   093f   uport f9 ; 
0045   003b   jsr init_xterm ; 
0046   058e
0047   003b   jsr d_targetrst ; 
0048   0574
0049   0c2e   ldpv pC,chome_m ; 
004a   0c76
004b   003b   jsr tx_line ; 
004c   0449
004d   003b   jsr myapp ; 
004e   0827
004f   003b   jsr irq_enb ; 
0050   05c0
0051   b133   main: inpp r1,pB ; 
0052   0141   bitv r1,RXDVLD ; 
0053   0080
0054   1037   bra z,main2 ; 
0055   0005
0056   003b   jsr rdchar ; 
0057   04ce
0058   003b   jsr sesma ; 
0059   0416
005a   0132   main2: inp r1,GPREG_0A ;
005b   000a
005c   010b   andv r1,'h001F ; 
005d   001f
005e   9037   bra nz,main5 ; 
005f   000d
0060   0a39   jmp fA,main3 ; 
0061   0065
0062   0a3e   uflag fA ; 
0063   0037   bra main4 ; 
0064   0004
0065   0d39   main3: jmp fD,main ; 
0066   0051
0067   0d3e   uflag fD ; 
0068   003b   main4: jsr myapp ; 
0069   0827
006a   0039   jmp main ;
006b   0051
006c   0141   main5: bitv r1,BTNL ; 
006d   0002
006e   1037   bra z,main6 ;
006f   0005
0070   0221   ldrv r2,1 ; 
0071   0001
0072   0037   bra main8 ;
0073   0019
0074   0141   main6: bitv r1,BTNR ; 
0075   0008
0076   1037   bra z,main7 ;
0077   0005
0078   0221   ldrv r2,0 ; 
0079   0000
007a   0037   bra main8 ;
007b   0011
007c   0141   main7: bitv r1,BTNU ; 
007d   0010
007e   1037   bra z,main7_1 ;
007f   0006
0080   023e   uflag f2 ; 
0081   0221   ldrv r2,5 ; 
0082   0005
0083   0037   bra main8 ;
0084   0008
0085   0141   main7_1: bitv r1,BTND ; 
0086   0001
0087   1037   bra z,main ;
0088   ffc9
0089   823e   uflag t2 ; 
008a   0221   ldrv r2,5 ; 
008b   0005
008c   2028   main8: str r2,myapp_val ;
008d   2a26
008e   0039   jmp main4 ; 
008f   0068
0090   0c2e   d_xadc: ldpv pC,decval4_m ; 
0091   0b77
0092   003b   jsr tx_line ;
0093   0449
0094   003b   jsr asc2dec ;
0095   06bf
0096   020b   andv r2,'h0007 ; 
0097   0007
0098   2028   str r2,myapp_val ;
0099   2a26
009a   003b   jsr tx_prmtx2 ;
009b   0493
009c   8a3e   uflag tA ; 
009d   003c   rts ; 
009e   0c2e   d_walking: ldpv pC,hexval2_m ; 
009f   0b1a
00a0   003b   jsr tx_line ;
00a1   0449
00a2   003b   jsr asc2hex ;
00a3   068e
00a4   020b   andv r2,'hFF ;
00a5   00ff
00a6   2028   str r2,pattern1 ;
00a7   29f9
00a8   330e   xor r3,r3 ;
00a9   3028   str r3,pattern2 ;
00aa   2a06
00ab   0221   ldrv r2,6 ; 
00ac   0006
00ad   2028   str r2,myapp_val ;
00ae   2a26
00af   003b   jsr tx_prmtx2 ;
00b0   0493
00b1   003c   rts ; 
00b2   0132   d_switch: inp r1,S1REG_8 ; 
00b3   0108
00b4   1034   outp r1,S1REG_0 ;
00b5   0100
00b6   0132   inp r1,S1REG_9 ; 
00b7   0109
00b8   1034   outp r1,S1REG_1 ;
00b9   0101
00ba   0221   ldrv r2,7 ; 
00bb   0007
00bc   2028   str r2,myapp_val ;
00bd   2a26
00be   003b   jsr tx_prmtx2 ;
00bf   0493
00c0   003c   rts ; 
00c1   0c2e   d_setled: ldpv pC,hexval8_m ; 
00c2   0b54
00c3   003b   jsr tx_line ;
00c4   0449
00c5   003b   jsr asc2hex ;
00c6   068e
00c7   3034   outp r3,S1REG_0 ;
00c8   0100
00c9   2034   outp r2,S1REG_1 ;
00ca   0101
00cb   0221   ldrv r2,7 ; 
00cc   0007
00cd   2028   str r2,myapp_val ;
00ce   2a26
00cf   003b   jsr tx_prmtx2 ;
00d0   0493
00d1   003c   rts ; 
00d2   0c2e   d_prgver: ldpv pC,fg_blu_m ; 
00d3   0c59
00d4   003b   jsr tx_line ; 
00d5   0449
00d6   0c2e   ldpv pC,version_m ;
00d7   09bc
00d8   003b   jsr tx_line ;
00d9   0449
00da   003b   jsr tx_prmtx2 ;
00db   0493
00dc   0c2e   ldpv pC,hwversion_m ; 
00dd   09e1
00de   003b   jsr tx_line ; 
00df   0449
00e0   0232   inp r2,GPREG_0D ;
00e1   000d
00e2   003b   jsr dishex4 ;
00e3   04b0
00e4   0232   inp r2,GPREG_0E ;
00e5   000e
00e6   003b   jsr dishex4 ;
00e7   04b0
00e8   003b   jsr tx_prmtx2 ;
00e9   0493
00ea   0c2e   ldpv pC,codelength_m ; 
00eb   09f7
00ec   003b   jsr tx_line ; 
00ed   0449
00ee   0232   inp r2,GPREG_02 ;
00ef   0002
00f0   003b   jsr dishex4 ;
00f1   04b0
00f2   003b   jsr tx_prmtx2 ;
00f3   0493
00f4   0c2e   ldpv pC,datalength_m ; 
00f5   0a0d
00f6   003b   jsr tx_line ; 
00f7   0449
00f8   0232   inp r2,GPREG_03 ;
00f9   0003
00fa   003b   jsr dishex4 ;
00fb   04b0
00fc   003b   jsr tx_prmtx2 ;
00fd   0493
00fe   0c2e   ldpv pC,bootlength_m ; 
00ff   0a23
0100   003b   jsr tx_line ; 
0101   0449
0102   0232   inp r2,GPREG_0C ;
0103   000c
0104   003b   jsr dishex4 ;
0105   04b0
0106   003b   jsr tx_prmtx2 ;
0107   0493
0108   0c2e   ldpv pC,ipversion_m ; 
0109   0a39
010a   003b   jsr tx_line ; 
010b   0449
010c   0232   inp r2,GPREG_0F ;
010d   000f
010e   003b   jsr dishex4 ;
010f   04b0
0110   003b   jsr tx_prmtx2 ;
0111   0493
0112   003c   rts ; 
0113   823e   d_rtcmode: uflag t2 ;
0114   0037   bra d_rtcval1 ;
0115   0002
0116   023e   d_rtcval: uflag f2 ;
0117   012e   d_rtcval1: ldpv p1,tmr1year ;
0118   2a1f
0119   011f   ldcv c1,5 ; 
011a   0005
011b   1224   rtcdump: ldrpi r2,p1 ;
011c   003b   jsr dishex4 ; 
011d   04b0
011e   0138   dcjnz c1,rtcdump ;
011f   011b
0120   0c2e   ldpv pC,promptlf ; 
0121   0bee
0122   003b   jsr tx_line ; 
0123   0449
0124   0521   d_rtcval2: ldrv r5,5 ; 
0125   0005
0126   5028   str r5,myapp_val ;
0127   2a26
0128   8a3e   uflag tA ; 
0129   003c   rts ; 
012a   0c2e   clscreen: ldpv pC,fg_wht_m ; 
012b   0c6b
012c   003b   jsr tx_line ; 
012d   0449
012e   0c2e   ldpv pC,cls_m ; 
012f   0c71
0130   003b   jsr tx_line ; 
0131   0449
0132   003b   jsr tx_prmtx2 ;
0133   0493
0134   0c2e   ldpv pC,chome_m ; 
0135   0c76
0136   003b   jsr tx_line ; 
0137   0449
0138   003b   jsr tx_prmtx2 ;
0139   0493
013a   003c   rts ; 
013b   003b   d_menu: jsr clscreen ; 
013c   012a
013d   0c2e   ldpv pC,menu ; 
013e   0dce
013f   0039   jmp d_txpage ;
0140   018b
0141   003b   d_appset: jsr clscreen ; 
0142   012a
0143   0c2e   ldpv pC,appset_m ; 
0144   13cd
0145   0039   jmp d_txpage ;
0146   018b
0147   003b   d_sysset: jsr clscreen ; 
0148   012a
0149   0c2e   ldpv pC,sysset_m ; 
014a   1207
014b   0039   jmp d_txpage ;
014c   018b
014d   003b   d_debugq: jsr clscreen ; 
014e   012a
014f   0c2e   ldpv pC,debugq_m ; 
0150   0e60
0151   0039   jmp d_txpage ;
0152   018b
0153   003b   d_debug: jsr clscreen ; 
0154   012a
0155   0c2e   ldpv pC,debug_m ; 
0156   0fd8
0157   0039   jmp d_txpage ;
0158   018b
0159   003b   d_help: jsr clscreen ; 
015a   012a
015b   0c2e   ldpv pC,fg_yel_m ; 
015c   0c53
015d   003b   jsr tx_line ; 
015e   0449
015f   0c2e   ldpv pC,help_m ; 
0160   1549
0161   0039   jmp d_txpage ;
0162   018b
0163   003b   d_help_io: jsr clscreen ; 
0164   012a
0165   0c2e   ldpv pC,fg_grn_m ; 
0166   0c4d
0167   003b   jsr tx_line ; 
0168   0449
0169   0c2e   ldpv pC,help_io ; 
016a   178a
016b   0039   jmp d_txpage ;
016c   018b
016d   003b   d_helpa: jsr clscreen ; 
016e   012a
016f   0c2e   ldpv pC,fg_grn_m ; 
0170   0c4d
0171   003b   jsr tx_line ; 
0172   0449
0173   0c2e   ldpv pC,helpa_m ; 
0174   1c67
0175   0039   jmp d_txpage ;
0176   018b
0177   003b   d_helps: jsr clscreen ; 
0178   012a
0179   0c2e   ldpv pC,fg_grn_m ; 
017a   0c4d
017b   003b   jsr tx_line ; 
017c   0449
017d   0c2e   ldpv pC,helps_m ; 
017e   1fb2
017f   0039   jmp d_txpage ;
0180   018b
0181   003b   d_helpd: jsr clscreen ; 
0182   012a
0183   0c2e   ldpv pC,fg_grn_m ; 
0184   0c4d
0185   003b   jsr tx_line ; 
0186   0449
0187   0c2e   ldpv pC,helpd_m ; 
0188   237d
0189   0039   jmp d_txpage ;
018a   018b
018b   003b   d_txpage: jsr tx_page ;
018c   0474
018d   003b   jsr tx_prmtcr ;
018e   0484
018f   003c   d_nothing: rts ;
0190   0c2e   d_regdump: ldpv pC,fg_yel_m ; 
0191   0c53
0192   003b   jsr tx_line ; 
0193   0449
0194   012d   ldp p1,iregptr ;
0195   2a0e
0196   0820   ldr r8,r_rows ; 
0197   2a14
0198   0920   ldr r9,r_cols ; 
0199   2a15
019a   003b   jsr regdump ;
019b   019f
019c   003b   jsr tx_prmt ;
019d   048e
019e   003c   rts ; 
019f   8243   regdump: ldc c2,r8 ; 
01a0   121b   regdum1: mvpr p1,r2 ; 
01a1   003b   jsr dishex4 ; 
01a2   04b0
01a3   0c2e   ldpv pC,colon_m ; 
01a4   0be8
01a5   003b   jsr tx_line ; 
01a6   0449
01a7   9143   ldc c1,r9 ; 
01a8   1233   regdum2: inpp r2,p1 ;
01a9   003b   jsr dishex4 ; 
01aa   04b0
01ab   0130   incp p1 ;
01ac   0138   dcjnz c1,regdum2 ;
01ad   01a8
01ae   003b   jsr tx_prmt ;
01af   048e
01b0   0238   dcjnz c2,regdum1 ;
01b1   01a0
01b2   003c   rts ; 
01b3   0c2e   d_aregs: ldpv pC,fg_yel_m ; 
01b4   0c53
01b5   003b   jsr tx_line ; 
01b6   0449
01b7   0120   ldr r1,regptr ;
01b8   2a0d
01b9   1819   mvrr r1,r8 ; 
01ba   161a   mvrp r1,p6 ;
01bb   011f   ldcv c1,15 ;
01bc   000f
01bd   8219   d_areg1: mvrr r8,r2 ;
01be   003b   jsr dishex4 ; 
01bf   04b0
01c0   0c2e   ldpv pC,colon_m ; 
01c1   0be8
01c2   003b   jsr tx_line ; 
01c3   0449
01c4   6233   inpp r2,p6 ;
01c5   003b   jsr dishex4 ;
01c6   04b0
01c7   003b   jsr tx_prmt ;
01c8   048e
01c9   0630   incp p6 ;
01ca   0810   inc r8 ;
01cb   0138   dcjnz c1,d_areg1 ;
01cc   01bd
01cd   003b   jsr tx_prmt ;
01ce   048e
01cf   003c   rts ; 
01d0   0c2e   d_io_aregs: ldpv pC,fg_yel_m ; 
01d1   0c53
01d2   003b   jsr tx_line ; 
01d3   0449
01d4   0c2e   ldpv pC,output_m ; 
01d5   0ab4
01d6   003b   jsr tx_line ; 
01d7   0449
01d8   003b   jsr tx_prmt ;
01d9   048e
01da   0120   ldr r1,regptr ;
01db   2a0d
01dc   1819   mvrr r1,r8 ; 
01dd   161a   mvrp r1,p6 ;
01de   011f   ldcv c1,7 ;
01df   0007
01e0   8219   d_io_areg1: mvrr r8,r2 ;
01e1   003b   jsr dishex4 ; 
01e2   04b0
01e3   0c2e   ldpv pC,colon_m ; 
01e4   0be8
01e5   003b   jsr tx_line ; 
01e6   0449
01e7   6233   inpp r2,p6 ;
01e8   003b   jsr dishex4 ;
01e9   04b0
01ea   003b   jsr tx_prmt ;
01eb   048e
01ec   0630   incp p6 ;
01ed   0810   inc r8 ;
01ee   0138   dcjnz c1,d_io_areg1 ;
01ef   01e0
01f0   0c2e   ldpv pC,input_m ; 
01f1   0aa7
01f2   003b   jsr tx_line ; 
01f3   0449
01f4   003b   jsr tx_prmt ;
01f5   048e
01f6   011f   ldcv c1,7 ;
01f7   0007
01f8   8219   d_io_areg2: mvrr r8,r2 ;
01f9   003b   jsr dishex4 ; 
01fa   04b0
01fb   0c2e   ldpv pC,colon_m ; 
01fc   0be8
01fd   003b   jsr tx_line ; 
01fe   0449
01ff   6233   inpp r2,p6 ;
0200   003b   jsr dishex4 ;
0201   04b0
0202   003b   jsr tx_prmt ;
0203   048e
0204   0630   incp p6 ;
0205   0810   inc r8 ;
0206   0138   dcjnz c1,d_io_areg2 ;
0207   01f8
0208   003b   jsr tx_prmt ;
0209   048e
020a   003c   rts ; 
020b   0120   d_mema: ldr r1,memacc ;
020c   2a0b
020d   010f   xorv r1,1 ;
020e   0001
020f   9037   bra nz,d_memon ;
0210   0008
0211   220e   xor r2,r2 ;
0212   2028   str r2,memop ;
0213   2a0c
0214   0c2e   ldpv pC,memof_m ; 
0215   0ac2
0216   0037   bra d_memof ;
0217   0007
0218   0221   d_memon: ldrv r2,3 ;
0219   0003
021a   2028   str r2,memop ;
021b   2a0c
021c   0c2e   ldpv pC,memon_m ;
021d   0ada
021e   1028   d_memof: str r1,memacc ;
021f   2a0b
0220   003b   jsr tx_line ;
0221   0449
0222   003b   jsr tx_prmt ;
0223   048e
0224   003c   rts ; 
0225   0120   d_memb: ldr r1,memode ;
0226   2a0a
0227   010f   xorv r1,1 ;
0228   0001
0229   9037   bra nz,d_membyte ;
022a   0005
022b   0c2e   ldpv pC,memword_m ; 
022c   0b06
022d   0037   bra d_memword ;
022e   0003
022f   0c2e   d_membyte: ldpv pC,membyte_m ;
0230   0af2
0231   1028   d_memword: str r1,memode ;
0232   2a0a
0233   003b   jsr tx_line ;
0234   0449
0235   003b   jsr tx_prmt ;
0236   048e
0237   003c   rts ; 
0238   0c2e   d_base: ldpv pC,hexval4_m ; 
0239   0b36
023a   003b   jsr tx_line ;
023b   0449
023c   003b   jsr asc2hex ;
023d   068e
023e   2028   str r2,regptr ;
023f   2a0d
0240   003b   jsr tx_prmtx2 ;
0241   0493
0242   003c   rts ; 
0243   0120   s_bitop: ldr r1,inpchar ; 
0244   2a02
0245   1a35   outpp r1,pA ; 
0246   1028   s_bitop1: str r1,bitop ;
0247   2a07
0248   0121   clrval: ldrv r1,'h3030 ; 
0249   3030
024a   1028   str r1,cvalue1 ;
024b   2a00
024c   1028   str r1,cvalue2 ;
024d   2a01
024e   003c   rts ; 
024f   0120   a_getadr: ldr r1,inpchar ;
0250   2a02
0251   1a35   outpp r1,pA ; 
0252   0220   a_geta1: ldr r2,cvalue1 ;
0253   2a00
0254   0320   ldr r3,cvalue2 ;
0255   2a01
0256   011f   ldcv c1,7 ;
0257   0007
0258   0215   a_geta2: shl l,r2 ;
0259   1315   shl k,r3 ;
025a   0138   dcjnz c1,a_geta2 ;
025b   0258
025c   3028   str r3,cvalue2 ;
025d   2a01
025e   120c   or r2,r1 ;
025f   2028   str r2,cvalue1 ;
0260   2a00
0261   003c   rts ; 
0262   003b   a_getval: jsr a_setadd ;
0263   0286
0264   003b   jsr tx_prmt ;
0265   048e
0266   012d   ldp p1,inpaddr ;
0267   2a03
0268   0120   ldr r1,bitop ;
0269   2a07
026a   1113   cmprv r1,"m" ;
026b   006d
026c   1037   bra z,a_getmem ;
026d   0004
026e   1233   inpp r2,p1 ;
026f   0037   bra a_getend ;
0270   0010
0271   102f   a_getmem: stp p1,memptr ;
0272   29f7
0273   102f   stp p1,memptrlast ;
0274   29f8
0275   0420   ldr r4,memop ;
0276   2a0c
0277   040b   andv r4,3 ;
0278   0003
0279   9037   bra nz,a_getex ;
027a   0004
027b   1222   ldrp r2,p1 ;
027c   0037   bra a_getend ;
027d   0003
027e   1026   a_getex: ldmam m1 ; 
027f   1222   ldrp r2,p1 ;
0280   0026   a_getend: ldmam m0 ; 
0281   003b   jsr dishex4 ;
0282   04b0
0283   003b   jsr tx_prmt ;
0284   048e
0285   003c   rts ; 
0286   0120   a_setadd: ldr r1,cvalue1 ;
0287   2a00
0288   003b   jsr tohex2 ;
0289   066e
028a   2319   mvrr r2,r3 ;
028b   0120   ldr r1,cvalue2 ;
028c   2a01
028d   003b   jsr tohex2 ;
028e   066e
028f   0217   shl4 r2 ;
0290   0217   shl4 r2 ;
0291   320c   or r2,r3 ;
0292   2028   str r2,inpaddr ;
0293   2a03
0294   0121   ldrv r1,'h3030 ;
0295   3030
0296   1028   str r1,cvalue1 ;
0297   2a00
0298   1028   str r1,cvalue2 ;
0299   2a01
029a   0120   ldr r1,inpchar ; 
029b   2a02
029c   1028   str r1,delimeter ;
029d   2a08
029e   1a35   outpp r1,pA ;
029f   003c   a_setadd2: rts ;
02a0   003b   a_regdat: jsr a_getadr ;
02a1   024f
02a2   003c   rts ; 
02a3   003b   a_wrval1: jsr a_wrval ;
02a4   02ba
02a5   003b   jsr a_wrout ;
02a6   02c9
02a7   003c   e_wrval1: rts ;
02a8   003b   a_wrval2: jsr a_wrval ;
02a9   02ba
02aa   0220   ldr r2,outdata ;
02ab   2a04
02ac   2209   not r2 ;
02ad   0320   ldr r3,delimeter ;
02ae   2a08
02af   3313   cmprv r3,"-" ;
02b0   002d
02b1   9037   bra ne,a_ones ;
02b2   0003
02b3   0203   addv r2,1 ;
02b4   0001
02b5   2028   a_ones: str r2,outdata ;
02b6   2a04
02b7   003b   jsr a_wrout ;
02b8   02c9
02b9   003c   e_wrval2: rts ;
02ba   0120   a_wrval: ldr r1,cvalue1 ;
02bb   2a00
02bc   003b   jsr tohex2 ;
02bd   066e
02be   2319   mvrr r2,r3 ; 
02bf   0120   ldr r1,cvalue2 ;
02c0   2a01
02c1   003b   jsr tohex2 ;
02c2   066e
02c3   0217   shl4 r2 ;
02c4   0217   shl4 r2 ;
02c5   320c   or r2,r3 ; 
02c6   2028   str r2,outdata ;
02c7   2a04
02c8   003c   rts ; 
02c9   0120   a_wrout: ldr r1,outdata ;
02ca   2a04
02cb   0220   ldr r2,inpaddr ;
02cc   2a03
02cd   0320   ldr r3,bitop ;
02ce   2a07
02cf   0420   ldr r4,memop ;
02d0   2a0c
02d1   3313   cmprv r3,"w" ; 
02d2   0077
02d3   9037   bra ne,a_w1 ;
02d4   0005
02d5   211a   mvrp r2,p1 ;
02d6   1135   outpp r1,p1 ;
02d7   0037   bra a_wend ;
02d8   0074
02d9   3313   a_w1: cmprv r3,"s" ; 
02da   0073
02db   9037   bra ne,a_w2 ;
02dc   000e
02dd   211a   mvrp r2,p1 ;
02de   032e   ldpv p3,h2btab ;
02df   0c26
02e0   0120   ldr r1,outdata ;
02e1   2a04
02e2   3104   addrp r1,p3 ;
02e3   131a   mvrp r1,p3 ;
02e4   3122   ldrp r1,p3 ; 
02e5   1233   inpp r2,p1 ; 
02e6   120c   or r2,r1 ;
02e7   2135   outpp r2,p1 ;
02e8   0037   bra a_wend ;
02e9   0063
02ea   3313   a_w2: cmprv r3,"c" ; 
02eb   0063
02ec   9037   bra ne,a_w3 ;
02ed   000f
02ee   211a   mvrp r2,p1 ;
02ef   032e   ldpv p3,h2btab ;
02f0   0c26
02f1   0120   ldr r1,outdata ;
02f2   2a04
02f3   3104   addrp r1,p3 ;
02f4   131a   mvrp r1,p3 ;
02f5   3122   ldrp r1,p3 ; 
02f6   1109   not r1,r1 ; 
02f7   1233   inpp r2,p1 ; 
02f8   120a   and r2,r1 ;
02f9   2135   outpp r2,p1 ;
02fa   0037   bra a_wend ;
02fb   0051
02fc   3313   a_w3: cmprv r3,"t" ; 
02fd   0074
02fe   9037   bra ne,a_w4 ;
02ff   000e
0300   211a   mvrp r2,p1 ;
0301   032e   ldpv p3,h2btab ;
0302   0c26
0303   0120   ldr r1,outdata ;
0304   2a04
0305   3104   addrp r1,p3 ;
0306   131a   mvrp r1,p3 ;
0307   3122   ldrp r1,p3 ; 
0308   1233   inpp r2,p1 ; 
0309   120e   xor r2,r1 ;
030a   2135   outpp r2,p1 ;
030b   0037   bra a_wend ;
030c   0040
030d   3313   a_w4: cmprv r3,"i" ; 
030e   0069
030f   9037   bra ne,a_w5 ;
0310   0010
0311   211a   mvrp r2,p1 ;
0312   032e   ldpv p3,h2btab ;
0313   0c26
0314   0120   ldr r1,outdata ;
0315   2a04
0316   3104   addrp r1,p3 ;
0317   131a   mvrp r1,p3 ;
0318   3122   ldrp r1,p3 ; 
0319   1233   inpp r2,p1 ; 
031a   120e   xor r2,r1 ;
031b   2135   outpp r2,p1 ; 
031c   120e   xor r2,r1 ;
031d   2135   outpp r2,p1 ;
031e   0037   bra a_wend ;
031f   002d
0320   3313   a_w5: cmprv r3,"a" ; 
0321   0061
0322   9037   bra ne,a_w6 ;
0323   0007
0324   211a   mvrp r2,p1 ;
0325   1333   inpp r3,p1 ; 
0326   310a   and r1,r3 ;
0327   1135   outpp r1,p1 ;
0328   0037   bra a_wend ;
0329   0023
032a   3313   a_w6: cmprv r3,"o" ; 
032b   006f
032c   9037   bra ne,a_w7 ;
032d   0007
032e   211a   mvrp r2,p1 ;
032f   1333   inpp r3,p1 ; 
0330   310c   or r1,r3 ;
0331   1135   outpp r1,p1 ;
0332   0037   bra a_wend ;
0333   0019
0334   3313   a_w7: cmprv r3,"e" ; 
0335   0065
0336   9037   bra ne,a_w8 ;
0337   0007
0338   211a   mvrp r2,p1 ;
0339   1333   inpp r3,p1 ; 
033a   310e   xor r1,r3 ;
033b   1135   outpp r1,p1 ;
033c   0037   bra a_wend ;
033d   000f
033e   3313   a_w8: cmprv r3,"m" ; 
033f   006d
0340   9037   bra ne,a_wend ;
0341   000b
0342   012d   ldp p1,inpaddr ;
0343   2a03
0344   0320   ldr r3,memop ;
0345   2a0c
0346   030b   andv r3,3 ;
0347   0003
0348   1037   bra z,a_w9 ;
0349   0002
034a   2026   ldmam m2 ; 
034b   1129   a_w9: strp r1,p1 ;
034c   0026   a_wend: ldmam m0 ; 
034d   003b   jsr tx_prmt ;
034e   048e
034f   003b   jsr tx_prmt ;
0350   048e
0351   003c   rts ; 
0352   0000   a_quit: nop ;
0353   003b   jsr tx_prmt ;
0354   048e
0355   003c   rts ; 
0356   853e   memnext: uflag t5 ; 
0357   012d   ldp p1,memptr ;
0358   29f7
0359   102f   stp p1,memptrlast ;
035a   29f8
035b   0039   jmp memdump0 ;
035c   035f
035d   012d   memdump: ldp p1,memptrlast ;
035e   29f8
035f   181b   memdump0: mvpr p1,r8 ; 
0360   0026   ldmam m0 ; 
0361   0220   ldr r2,m_rows ;
0362   2a1d
0363   2243   ldc c2,r2 ; 
0364   0120   ldr r1,memode ;
0365   2a0a
0366   110c   or r1,r1 ;
0367   9037   bra nz,memdumb1 ;
0368   0025
0369   8219   memdumw1: mvrr r8,r2 ;
036a   003b   jsr dishex4 ; 
036b   04b0
036c   0c2e   ldpv pC,colon_m ; 
036d   0be8
036e   003b   jsr tx_line ; 
036f   0449
0370   0220   ldr r2,m_cols ; 
0371   2a1e
0372   2143   ldc c1,r2 ; 
0373   0120   memdumw2: ldr r1,memop ;
0374   2a0c
0375   010b   andv r1,3 ;
0376   0003
0377   1037   bra z,rdmemw ;
0378   0002
0379   1026   ldmam m1 ; 
037a   1224   rdmemw: ldrpi r2,p1 ;
037b   0026   ldmam m0 ; 
037c   003b   jsr dishex4 ; 
037d   04b0
037e   0138   dcjnz c1,memdumw2 ;
037f   0373
0380   003b   jsr tx_prmt ;
0381   048e
0382   0803   addv r8,8 ;
0383   0008
0384   0238   dcjnz c2,memdumw1 ;
0385   0369
0386   0539   jmp f5,memdum4 ;
0387   03b7
0388   102f   stp p1,memptr ;
0389   29f7
038a   053e   uflag f5 ;
038b   0039   jmp memdum4 ;
038c   03b7
038d   8219   memdumb1: mvrr r8,r2 ;
038e   003b   jsr dishex4 ; 
038f   04b0
0390   0c2e   ldpv pC,colon_m ; 
0391   0be8
0392   003b   jsr tx_line ; 
0393   0449
0394   011f   ldcv c1,7 ; 
0395   0007
0396   0120   memdumb2: ldr r1,memop ;
0397   2a0c
0398   010b   andv r1,3 ;
0399   0003
039a   1037   bra z,rdmemb ;
039b   0002
039c   1026   ldmam m1 ; 
039d   330e   rdmemb: xor r3,r3 ;
039e   1224   ldrpi r2,p1 ; 
039f   230c   or r3,r2 ;
03a0   1224   ldrpi r2,p1 ;
03a1   0217   shl4 r2 ;
03a2   0217   shl4 r2 ;
03a3   230c   or r3,r2 ;
03a4   321d   swap r3,r2 ;
03a5   0026   ldmam m0 ; 
03a6   003b   jsr dishex4 ; 
03a7   04b0
03a8   0138   dcjnz c1,memdumb2 ;
03a9   0396
03aa   003b   jsr tx_prmt ;
03ab   048e
03ac   0803   addv r8,16 ;
03ad   0010
03ae   0238   dcjnz c2,memdumb1 ;
03af   038d
03b0   0539   jmp f5,memdum4 ;
03b1   03b7
03b2   102f   stp p1,memptr ;
03b3   29f7
03b4   053e   uflag f5 ;
03b5   0039   jmp memdum4 ;
03b6   03b7
03b7   003b   memdum4: jsr tx_prmt ;
03b8   048e
03b9   003c   rts ; 
03ba   012e   vardump: ldpv p1,varchk ;
03bb   2a0f
03bc   181b   mvpr p1,r8 ; 
03bd   0026   vardump0: ldmam m0 ; 
03be   0220   ldr r2,dbugrows ;
03bf   2a27
03c0   2243   ldc c2,r2 ; 
03c1   8219   vardum1: mvrr r8,r2 ;
03c2   003b   jsr dishex4 ; 
03c3   04b0
03c4   0c2e   ldpv pC,colon_m ; 
03c5   0be8
03c6   003b   jsr tx_line ; 
03c7   0449
03c8   011f   ldcv c1,7 ; 
03c9   0007
03ca   1224   vardum2: ldrpi r2,p1 ;
03cb   003b   jsr dishex4 ; 
03cc   04b0
03cd   0138   dcjnz c1,vardum2 ;
03ce   03ca
03cf   003b   jsr tx_prmt ;
03d0   048e
03d1   0803   addv r8,8 ;
03d2   0008
03d3   0238   dcjnz c2,vardum1 ;
03d4   03c1
03d5   102f   stp p1,memptr ;
03d6   29f7
03d7   003b   jsr tx_prmt ;
03d8   048e
03d9   003c   rts ; 
03da   0c2e   memlen: ldpv pC,hexval4_m ; 
03db   0b36
03dc   003b   jsr tx_line ;
03dd   0449
03de   003b   jsr asc2hex ; 
03df   068e
03e0   3028   str r3,buff_len ; 
03e1   2a10
03e2   2028   str r2,buff_inc ; 
03e3   2a13
03e4   003b   jsr tx_prmt ;
03e5   048e
03e6   003c   rts ; 
03e7   0c2e   memfill: ldpv pC,hexval4_m ; 
03e8   0b36
03e9   003b   jsr tx_line ;
03ea   0449
03eb   003b   jsr asc2hex ; 
03ec   068e
03ed   3028   str r3,buff_addr ; 
03ee   2a0f
03ef   2028   str r2,buff_value ;
03f0   2a12
03f1   311a   mvrp r3,p1 ; 
03f2   0520   ldr r5,buff_inc ; 
03f3   2a13
03f4   0420   ldr r4,buff_len ; 
03f5   2a10
03f6   0620   ldr r6,memop ;
03f7   2a0c
03f8   060b   andv r6,3 ;
03f9   0003
03fa   1037   bra z,memfill2 ;
03fb   0007
03fc   0120   ldr r1,memode ; 
03fd   2a0a
03fe   2026   ldmam m2 ; 
03ff   110c   or r1,r1 ; 
0400   9037   bra nz,memfill3 ;
0401   0008
0402   212b   memfill2: strpi r2,p1 ; 
0403   5201   add r2,r5 ;
0404   0411   dec r4 ;
0405   9037   bra nz,memfill2 ;
0406   fffc
0407   0037   bra memfill4 ;
0408   000a
0409   212b   memfill3: strpi r2,p1 ; 
040a   2319   mvrr r2,r3 ;
040b   0318   shr4 r3 ; 
040c   0318   shr4 r3 ;
040d   312b   strpi r3,p1 ;
040e   5201   add r2,r5 ;
040f   0411   dec r4 ;
0410   9037   bra nz,memfill3 ;
0411   fff8
0412   0026   memfill4: ldmam m0 ; 
0413   003b   jsr tx_prmt ;
0414   048e
0415   003c   rts ; 
0416   2f2b   sesma: strpi r2,pF ;
0417   3f2b   strpi r3,pF ;
0418   012d   ldp p1,ssm_pst ;
0419   2a1a
041a   1222   ssm_1: ldrp r2,p1 ;
041b   220c   or r2,r2 ;
041c   1037   bra e,ssm_2 ;
041d   000a
041e   2112   cmpr r1,r2 ;
041f   1037   bra e,ssm_2 ;
0420   0007
0421   131b   mvpr p1,r3 ; 
0422   0303   addv r3,4 ;
0423   0004
0424   311a   mvrp r3,p1 ;
0425   0037   bra ssm_1 ;
0426   fff4
0427   1223   ssm_2: ldrx r2,p1,1 ; 
0428   0001
0429   2213   cmprv r2,"R" ; 
042a   0052
042b   1037   bra e,p_rest ;
042c   0013
042d   2213   cmprv r2,"J" ; 
042e   004a
042f   1037   bra e,p_jump ;
0430   0009
0431   2213   cmprv r2,"S" ; 
0432   0053
0433   9037   bra ne,ssm_end ;
0434   000f
0435   0220   p_save: ldr r2,ssm_pst ; 
0436   2a1a
0437   2028   str r2,ssm_lst ; 
0438   2a1b
0439   1223   p_jump: ldrx r2,p1,3 ; 
043a   0003
043b   2028   str r2,ssm_pst ; 
043c   2a1a
043d   0037   bra ssm_end ;
043e   0005
043f   0220   p_rest: ldr r2,ssm_lst ;
0440   2a1b
0441   2028   str r2,ssm_pst ;
0442   2a1a
0443   1223   ssm_end: ldrx r2,p1,2 ;
0444   0002
0445   211a   mvrp r2,p1 ;
0446   f325   ldrpd r3,pF ;
0447   f225   ldrpd r2,pF ;
0448   013a   ssm_exec: jmpp p1 ; 
0449   b333   tx_line2: inpp r3,pB ; 
044a   030b   andv r3,TXEMPT ; 
044b   0020
044c   1037   bra z,tx_line2 ; 
044d   fffc
044e   c424   tx_char: ldrpi r4,pC ; 
044f   4413   cmprv r4,NULL ; 
0450   0000
0451   1037   bra z,tx_ends ; 
0452   0021
0453   4413   cmprv r4,"|" ;
0454   007c
0455   9037   bra nz,tx_nxt ;
0456   000f
0457   001f   ldcv c0,NUMFILL ; 
0458   0005
0459   b333   tx_fill: inpp r3,pB ; 
045a   030b   andv r3,TXFULL ; 
045b   0040
045c   9037   bra nz,tx_fill ; 
045d   fffc
045e   0421   ldrv r4,CHARFILL ; 
045f   002d
0460   4a35   outpp r4,pA ;
0461   0038   dcjnz c0,tx_fill ;
0462   0459
0463   0037   bra tx_line2 ; 
0464   ffe5
0465   4413   tx_nxt: cmprv r4,UNDER ;
0466   005f
0467   9037   bra nz,tx_nxt2 ;
0468   0003
0469   0421   ldrv r4,SPC ;
046a   0020
046b   4a35   tx_nxt2: outpp r4,pA ; 
046c   b333   inpp r3,pB ; 
046d   030b   andv r3,TXFULL ; 
046e   0040
046f   9037   bra nz,tx_line2 ; 
0470   ffd9
0471   0037   bra tx_char ; 
0472   ffdc
0473   003c   tx_ends: rts ; 
0474   003b   tx_page2: jsr tx_line ; 
0475   0449
0476   c11b   mvpr pC,r1 ;
0477   1028   str r1,temp0 ;
0478   2a09
0479   003b   jsr tx_prmt ; 
047a   048e
047b   0120   ldr r1,temp0 ;
047c   2a09
047d   1c1a   mvrp r1,pC ;
047e   c322   ldrp r3,pC ; 
047f   3313   cmprv r3,ETX ; 
0480   0003
0481   9037   bra nz,tx_page2 ; 
0482   fff2
0483   003c   rts ; 
0484   0c2e   tx_prmtcr: ldpv pC,promptcr ; 
0485   0bf0
0486   003b   jsr tx_line ; 
0487   0449
0488   003c   rts ; 
0489   0c2e   tx_prmtlf: ldpv pC,promptlf ; 
048a   0bee
048b   003b   jsr tx_line ; 
048c   0449
048d   003c   rts ; 
048e   0c2e   tx_prmt: ldpv pC,prompt ; 
048f   0bed
0490   003b   jsr tx_line ; 
0491   0449
0492   003c   rts ; 
0493   0c2e   tx_prmtx2: ldpv pC,promptx2 ; 
0494   0beb
0495   003b   jsr tx_line ; 
0496   0449
0497   003c   rts ; 
0498   b133   chkstat: inpp r1,pB ; 
0499   010b   andv r1,TXFULL ; 
049a   0040
049b   9037   bra nz,chkstat ; 
049c   fffc
049d   003c   rts ; 
049e   0203   disdigit: addv r2,'h30 ; 
049f   0030
04a0   2a35   outpp r2,pA ; 
04a1   0221   ldrv r2,CR ;
04a2   000d
04a3   2a35   outpp r2,pA ; 
04a4   003c   rts ; 
04a5   2319   dishexs: mvrr r2,r3 ;
04a6   030b   andv r3,SIGNED ;
04a7   8000
04a8   1037   bra z,dishex4 ;
04a9   0007
04aa   2209   not r2 ;
04ab   0203   addv r2,1 ;
04ac   0001
04ad   0321   ldrv r3,"-" ;
04ae   002d
04af   3a35   outpp r3,pA ; 
04b0   2319   dishex4: mvrr r2,r3 ;
04b1   0218   shr4 r2 ;
04b2   0218   shr4 r2 ;
04b3   003b   jsr hex2asc ;
04b4   0652
04b5   0120   ldr r1,hex2val ;
04b6   29ff
04b7   1a35   outpp r1,pA ;
04b8   003b   jsr chkstat ;
04b9   0498
04ba   0120   ldr r1,hex1val ;
04bb   29fe
04bc   1a35   outpp r1,pA ;
04bd   3219   mvrr r3,r2 ;
04be   003b   dishex2: jsr hex2asc ;
04bf   0652
04c0   0120   ldr r1,hex2val ;
04c1   29ff
04c2   1a35   outpp r1,pA ;
04c3   003b   jsr chkstat ;
04c4   0498
04c5   0120   ldr r1,hex1val ;
04c6   29fe
04c7   1a35   outpp r1,pA ;
04c8   003b   jsr chkstat ;
04c9   0498
04ca   0121   ldrv r1,SPC ;
04cb   0020
04cc   1a35   outpp r1,pA ;
04cd   003c   rts ; 
04ce   b133   rdchar: inpp r1,pB ; 
04cf   0141   bitv r1,RXDVLD ; 
04d0   0080
04d1   1037   bra z,rdchar ; 
04d2   fffc
04d3   a133   inpp r1,pA ; 
04d4   010b   andv r1,'hFF ; 
04d5   00ff
04d6   1028   str r1,inpchar ; 
04d7   2a02
04d8   003c   rts ; 
04d9   b133   rd_once: inpp r1,pB ; 
04da   0141   bitv r1,RXDVLD ; 
04db   0080
04dc   1037   bra z,rd_once2 ; 
04dd   0006
04de   a133   inpp r1,pA ; 
04df   010b   andv r1,'hFF ; 
04e0   00ff
04e1   1028   str r1,inpchar ; 
04e2   2a02
04e3   003c   rd_once2: rts ; 
04e4   0c2e   setyear: ldpv pC,decval4_m ; 
04e5   0b77
04e6   003b   jsr tx_line ;
04e7   0449
04e8   003b   jsr asc2dec ; 
04e9   06bf
04ea   2028   str r2,tmr1year ;
04eb   2a1f
04ec   003b   jsr tx_prmt ;
04ed   048e
04ee   003c   rts ; 
04ef   0c2e   setmonth: ldpv pC,decval4_m ; 
04f0   0b77
04f1   003b   jsr tx_line ;
04f2   0449
04f3   003b   jsr asc2dec ; 
04f4   06bf
04f5   2028   str r2,tmr1month ;
04f6   2a20
04f7   003b   jsr tx_prmt ;
04f8   048e
04f9   003c   rts ; 
04fa   0c2e   setdate: ldpv pC,decval4_m ; 
04fb   0b77
04fc   003b   jsr tx_line ;
04fd   0449
04fe   003b   jsr asc2dec ; 
04ff   06bf
0500   2028   str r2,tmr1date ;
0501   2a21
0502   003b   jsr tx_prmt ;
0503   048e
0504   003c   rts ; 
0505   0c2e   sethour: ldpv pC,decval4_m ; 
0506   0b77
0507   003b   jsr tx_line ;
0508   0449
0509   003b   jsr asc2dec ; 
050a   06bf
050b   2028   str r2,tmr1hour ;
050c   2a22
050d   220e   xor r2,r2 ;
050e   2028   str r2,tmr1min ;
050f   2a23
0510   2028   str r2,tmr1sec ;
0511   2a24
0512   003b   jsr tx_prmt ;
0513   048e
0514   003c   rts ; 
0515   0c2e   setmin: ldpv pC,decval4_m ; 
0516   0b77
0517   003b   jsr tx_line ;
0518   0449
0519   003b   jsr asc2dec ; 
051a   06bf
051b   2028   str r2,tmr1min ;
051c   2a23
051d   220e   xor r2,r2 ;
051e   2028   str r2,tmr1sec ;
051f   2a24
0520   003b   jsr tx_prmt ;
0521   048e
0522   003c   rts ; 
0523   0c2e   setsec: ldpv pC,decval4_m ; 
0524   0b77
0525   003b   jsr tx_line ;
0526   0449
0527   003b   jsr asc2dec ; 
0528   06bf
0529   2028   str r2,tmr1sec ;
052a   2a24
052b   003b   jsr tx_prmt ;
052c   048e
052d   003c   rts ; 
052e   0c2e   set_varchk: ldpv pC,decval4_m ; 
052f   0b77
0530   003b   jsr tx_line ;
0531   0449
0532   003b   jsr asc2dec ; 
0533   06bf
0534   2119   mvrr r2,r1 ;
0535   003b   jsr dec2hex ;
0536   0640
0537   3028   str r3,dbugrows ;
0538   2a27
0539   003b   jsr tx_prmt ;
053a   048e
053b   003c   rts ; 
053c   0c2e   set_creg: ldpv pC,decval4_m ; 
053d   0b77
053e   003b   jsr tx_line ;
053f   0449
0540   003b   jsr asc2dec ; 
0541   06bf
0542   2119   mvrr r2,r1 ;
0543   003b   jsr dec2hex ;
0544   0640
0545   3028   str r3,r_cols ;
0546   2a15
0547   003b   jsr tx_prmt ;
0548   048e
0549   003c   rts ; 
054a   0c2e   set_rreg: ldpv pC,decval4_m ; 
054b   0b77
054c   003b   jsr tx_line ;
054d   0449
054e   003b   jsr asc2dec ; 
054f   06bf
0550   2119   mvrr r2,r1 ;
0551   003b   jsr dec2hex ;
0552   0640
0553   3028   str r3,r_rows ;
0554   2a14
0555   003b   jsr tx_prmt ;
0556   048e
0557   003c   rts ; 
0558   0c2e   set_cmem: ldpv pC,decval4_m ; 
0559   0b77
055a   003b   jsr tx_line ;
055b   0449
055c   003b   jsr asc2dec ; 
055d   06bf
055e   2119   mvrr r2,r1 ;
055f   003b   jsr dec2hex ;
0560   0640
0561   3028   str r3,m_cols ;
0562   2a1e
0563   003b   jsr tx_prmt ;
0564   048e
0565   003c   rts ; 
0566   0c2e   set_rmem: ldpv pC,decval4_m ; 
0567   0b77
0568   003b   jsr tx_line ;
0569   0449
056a   003b   jsr asc2dec ; 
056b   06bf
056c   2119   mvrr r2,r1 ;
056d   003b   jsr dec2hex ;
056e   0640
056f   3028   str r3,m_rows ;
0570   2a1d
0571   003b   jsr tx_prmt ;
0572   048e
0573   003c   rts ; 
0574   0132   inp r1,GPREG_07 ; 
0575   0007
0576   010b   andv r1,TARGET_NSK ;
0577   fffe
0578   010d   orv r1,TARGET_MSK ;
0579   0001
057a   1034   outp r1,GPREG_07 ;
057b   0007
057c   001f   ldcv c0,10 ; 
057d   000a
057e   0000   nop ; 
057f   0000   nop ; 
0580   0038   dcjnz c0,d_targetrst2 ;
0581   057e
0582   0000   nop;  
0583   010b   andv r1,TARGET_NSK ;
0584   fffe
0585   1034   outp r1,GPREG_07 ;
0586   0007
0587   0c2e   ldpv pC,treset_m ; 
0588   0bc1
0589   003b   jsr tx_line ; 
058a   0449
058b   003b   jsr tx_prmtx2 ;
058c   0493
058d   003c   rts ; 
058e   0c2e   init_xterm: ldpv pC,initx_m ; 
058f   0c36
0590   003b   jsr tx_line ;
0591   0449
0592   003c   rts ; 
0593   0c2e   d_pcode: ldpv pC,hexval4_m ; 
0594   0b36
0595   003b   jsr tx_line ;
0596   0449
0597   003b   jsr asc2hex ; 
0598   068e
0599   020b   andv r2,PCODE_MSK ; 
059a   0002
059b   0132   inp r1,GPREG_07 ;
059c   0007
059d   010b   andv r1,PCODE_NSK ;
059e   fffd
059f   210c   or r1,r2 ;
05a0   1034   outp r1,GPREG_07 ;
05a1   0007
05a2   003b   jsr tx_prmt ;
05a3   048e
05a4   0c2e   ldpv pC,enbfile_m ;
05a5   0b8f
05a6   003b   jsr tx_line ;
05a7   0449
05a8   003b   jsr tx_prmt ;
05a9   048e
05aa   003c   rts ; 
05ab   0c2e   jmp_boot: ldpv pC,loadfile_m ;
05ac   0bb1
05ad   003b   jsr tx_line ;
05ae   0449
05af   003b   jsr tx_prmt ;
05b0   048e
05b1   003b   jsr tx_prmt ;
05b2   048e
05b3   0039   jmp BOOT_ADDR ;
05b4   3f00
05b5   0c2e   irq_set: ldpv pC,hexval4_m ;
05b6   0b36
05b7   003b   jsr tx_line ;
05b8   0449
05b9   003b   jsr asc2hex ; 
05ba   068e
05bb   2028   str r2,irqmask ; 
05bc   2a19
05bd   220c   or r2,r2 ; 
05be   1037   bra z,irq_dis ;
05bf   0004
05c0   0045   irq_enb: sei ;
05c1   843f   uport t4 ; 
05c2   003c   rts ; 
05c3   0046   irq_dis: cli ;
05c4   043f   uport f4 ; 
05c5   003c   rts ; 
05c6   0c2e   d_pagenum: ldpv pC,hexval4_m ; 
05c7   0b36
05c8   003b   jsr tx_line ;
05c9   0449
05ca   003b   d_pagenum2:jsr asc2hex ; 
05cb   068e
05cc   020b   andv r2,'h0007 ; 
05cd   0007
05ce   2042   ldpag r2 ; 
05cf   003b   jsr tx_prmt ;
05d0   048e
05d1   003c   d_pagenum3: rts ;
05d2   7143   delay: ldc c1,r7 ;
05d3   0000   delay1: nop ;
05d4   0138   dcjnz c1,delay1 ;
05d5   05d3
05d6   003c   rts ; 
05d7   7028   intdelay: str r7,tmr1value ; 
05d8   2a18
05d9   0c3e   uflag fC ; 
05da   8c39   intdelay1: jmp tC,intdelay2 ;
05db   05de
05dc   9037   bra ne,intdelay1 ;
05dd   fffd
05de   003c   intdelay2: rts ;
05df   330e   multiply: xor r3,r3 ; 
05e0   001f   ldcv c0,15 ; 
05e1   000f
05e2   0241   multiply1: bitv r2,1 ; 
05e3   0001
05e4   1037   bra z,multiply2 ;
05e5   0002
05e6   1301   add r3,r1 ;
05e7   0316   multiply2: shr l,r3 ; 
05e8   1216   shr k,r2 ; 
05e9   0038   dcjnz c0,multiply1 ;
05ea   05e2
05eb   311d   swap r3,r1 ; 
05ec   003c   multend: rts ;
05ed   660e   division: xor r6,r6 ; 
05ee   4505   divstart: sub r5,r4 ;
05ef   3037   bra s,divend ;
05f0   0005
05f1   5319   mvrr r5,r3 ; 
05f2   0610   inc r6 ;
05f3   0037   bra divstart ;
05f4   fffa
05f5   003c   divend: rts ;
05f6   1113   cmprv r1,1752 ; 
05f7   06d8
05f8   e037   bra le,not_ly ; 
05f9   0133
05fa   0116   check4: shr r1 ; 
05fb   2037   bra c,not_ly ;
05fc   0130
05fd   0116   shr r1 ; 
05fe   2037   bra c,not_ly ;
05ff   012d
0600   1519   check100: mvrr r1,r5 ; 
0601   0421   ldrv r4,25 ; 
0602   0019
0603   003b   jsr division ;
0604   05ed
0605   330c   or r3,r3 ; 
0606   9037   bra ne,is_ly ; 
0607   0121
0608   6519   check400: mvrr r6,r5 ; 
0609   0421   ldrv r4,4 ; 
060a   0004
060b   003b   jsr division ;
060c   05ed
060d   330c   or r3,r3 ; 
060e   9037   bra ne,not_ly ; 
060f   011d
0610   0121   is_ly: ldrv r1,'hffff ;
0611   ffff
0612   0037   bra leapend ;
0613   011a
0614   110e   not_ly: xor r1,r1 ;
0615   003c   leapend: rts ; 
0616   0211   hex2dec: dec r2 ;
0617   2143   ldc c1,r2 ; 
0618   330e   xor r3,r3 ;
0619   440e   xor r4,r4 ;
061a   550e   xor r5,r5 ;
061b   660e   xor r6,r6 ;
061c   0310   hex2dec1: inc r3 ;
061d   3313   cmprv r3,'h000a ;
061e   000a
061f   d037   bra lt,hex2dec2 ;
0620   0014
0621   330e   xor r3,r3 ;
0622   0410   inc r4 ;
0623   4413   cmprv r4,'h000a ;
0624   000a
0625   d037   bra lt,hex2dec2 ;
0626   000e
0627   440e   xor r4,r4 ;
0628   0510   inc r5 ;
0629   5513   cmprv r5,'h000a ;
062a   000a
062b   d037   bra lt,hex2dec2 ;
062c   0008
062d   550e   xor r5,r5 ;
062e   0610   inc r6 ;
062f   6613   cmprv r6,'h000a ;
0630   000a
0631   d037   bra lt,hex2dec2 ;
0632   0002
0633   660e   xor r6,r6 ;
0634   0138   hex2dec2: dcjnz c1,hex2dec1 ;
0635   061c
0636   0417   shl4 r4 ; 
0637   0517   shl4 r5 ; 
0638   0517   shl4 r5 ; 
0639   0617   shl4 r6 ; 
063a   0617   shl4 r6 ; 
063b   0617   shl4 r6 ; 
063c   430c   or r3,r4 ;
063d   530c   or r3,r5 ;
063e   630c   or r3,r6 ;
063f   003c   rts ; 
0640   082e   dec2hex: ldpv p8,dec2hextab ;
0641   2a48
0642   0521   ldrv r5,'h000F ;
0643   000f
0644   440e   xor r4,r4 ; 
0645   1619   dec2hex1: mvrr r1,r6 ; 
0646   510a   and r1,r5 ; 
0647   8224   ldrpi r2,p8 ; 
0648   003b   jsr multiply ; 
0649   05df
064a   2401   add r4,r2 ;
064b   6119   mvrr r6,r1 ; 
064c   0118   shr4 r1 ; 
064d   9037   bra nz,dec2hex1 ;
064e   fff7
064f   4319   mvrr r4,r3 ;
0650   6119   mvrr r6,r1 ;
0651   003c   dec2hex2: rts ;
0652   2f2b   hex2asc: strpi r2,pF ; 
0653   020b   andv r2,'h00F ;
0654   000f
0655   2213   cmprv r2,'h00A ;
0656   000a
0657   d037   bra lt,hex1 ;
0658   0003
0659   0203   addv r2,'h007 ;
065a   0007
065b   0203   hex1: addv r2,'h030 ;
065c   0030
065d   2028   str r2,hex1val ;
065e   29fe
065f   f225   ldrpd r2,pF ; 
0660   0218   shr4 r2 ; 
0661   020b   andv r2,'h00F ;
0662   000f
0663   2213   cmprv r2,'h00A ;
0664   000a
0665   d037   bra lt,hex2 ;
0666   0003
0667   0203   addv r2,'h007 ;
0668   0007
0669   0203   hex2: addv r2,'h030 ;
066a   0030
066b   2028   str r2,hex2val ;
066c   29ff
066d   003c   rts ; 
066e   1219   tohex2: mvrr r1,r2 ; 
066f   010b   andv r1,'h00ff ;
0670   00ff
0671   0107   subv r1,'h030 ; 
0672   0030
0673   1113   cmprv r1,9 ;
0674   0009
0675   f037   bra ls,tohex21 ;
0676   0005
0677   010b   andv r1,'h000f ;
0678   000f
0679   0103   addv r1,9 ;
067a   0009
067b   0218   tohex21: shr4 r2 ;
067c   0218   shr4 r2 ;
067d   020b   andv r2,'h00ff ;
067e   00ff
067f   0207   subv r2,'h030 ; 
0680   0030
0681   2213   cmprv r2,9 ;
0682   0009
0683   f037   bra ls,tohex22 ;
0684   0005
0685   020b   andv r2,'h000f ;
0686   000f
0687   0203   addv r2,9 ;
0688   0009
0689   0217   tohex22: shl4 r2 ;
068a   020b   andv r2,'h00f0 ;
068b   00f0
068c   120c   or r2,r1 ;
068d   003c   rts ; 
068e   220e   asc2hex: xor r2,r2 ; 
068f   330e   xor r3,r3 ; 
0690   063e   uflag f6 ;
0691   003b   asc2hex1: jsr rdchar ;
0692   04ce
0693   1a35   outpp r1,pA ; 
0694   1113   asc2hex3: cmprv r1,CR ;
0695   000d
0696   1037   bra z,asc2hex9 ;
0697   0021
0698   1113   cmprv r1,"-" ;
0699   002d
069a   9037   bra ne,asc2hex4 ;
069b   0002
069c   863e   uflag t6 ;
069d   0107   asc2hex4: subv r1,'h030 ; 
069e   0030
069f   3037   bra s,asc2hex1 ; 
06a0   fff1
06a1   0215   shl l,r2 ;
06a2   1315   shl k,r3 ;
06a3   0215   shl l,r2 ;
06a4   1315   shl k,r3 ;
06a5   0215   shl l,r2 ;
06a6   1315   shl k,r3 ;
06a7   0215   shl l,r2 ;
06a8   1315   shl k,r3 ;
06a9   1113   cmprv r1,9 ;
06aa   0009
06ab   f037   bra ls,asc2hex2 ;
06ac   0005
06ad   010b   andv r1,'h00F ; 
06ae   000f
06af   0103   addv r1,9 ;
06b0   0009
06b1   120c   asc2hex2: or r2,r1 ;
06b2   3d2a   strx r3,pD,0 ;
06b3   0000
06b4   2d2a   strx r2,pD,1 ;
06b5   0001
06b6   0037   bra asc2hex1 ;
06b7   ffda
06b8   0639   asc2hex9: jmp f6,asc2hexa ;
06b9   06be
06ba   2209   not r2,r2 ;
06bb   3309   not r3,r3 ;
06bc   0203   addv r2,1 ;
06bd   0001
06be   003c   asc2hexa: rts ;
06bf   220e   asc2dec: xor r2,r2 ; 
06c0   330e   xor r3,r3 ; 
06c1   003b   asc2dec1: jsr rdchar ; 
06c2   04ce
06c3   1113   cmprv r1,CR ;
06c4   000d
06c5   1037   bra z,asc2dec3 ;
06c6   001b
06c7   1113   cmprv r1,'h0030 ;
06c8   0030
06c9   d037   bra lt,asc2dec1 ;
06ca   fff7
06cb   1113   cmprv r1,'h0039 ;
06cc   0039
06cd   7037   bra hi,asc2dec1 ;
06ce   fff3
06cf   1a35   outpp r1,pA ; 
06d0   0107   asc2dec2: subv r1,'h030 ; 
06d1   0030
06d2   0215   shl l,r2 ;
06d3   1315   shl k,r3 ;
06d4   0215   shl l,r2 ;
06d5   1315   shl k,r3 ;
06d6   0215   shl l,r2 ;
06d7   1315   shl k,r3 ;
06d8   0215   shl l,r2 ;
06d9   1315   shl k,r3 ;
06da   120c   or r2,r1 ;
06db   3d2a   strx r3,pD,0 ;
06dc   0000
06dd   2d2a   strx r2,pD,1 ;
06de   0001
06df   0037   bra asc2dec1 ;
06e0   ffe1
06e1   003c   asc2dec3: rts ;
06e2   5513   monthchk: cmprv r5,2 ; 
06e3   0002
06e4   9037   bra ne,monthchk0 ; 
06e5   0012
06e6   6919   mvrr r6,r9 ;
06e7   090b   andv r9,'h00ff ;
06e8   00ff
06e9   1037   bra z,month28 ; 
06ea   0009
06eb   090b   andv r9,'h0003 ; 
06ec   0003
06ed   9037   bra nz,month28 ; 
06ee   0005
06ef   0821   month29: ldrv r8,29 ;
06f0   001d
06f1   0037   bra monthchkend ; 
06f2   001b
06f3   0821   month28: ldrv r8,28 ;
06f4   001c
06f5   0037   bra monthchkend ;
06f6   0017
06f7   0541   monthchk0: bitv r5,8 ; 
06f8   0008
06f9   9037   bra nz,monthchk1 ;
06fa   000d
06fb   0541   bitv r5,1 ; 
06fc   0001
06fd   1037   bra z,month30 ;
06fe   0005
06ff   0821   month31: ldrv r8,31 ;
0700   001f
0701   0037   bra monthchkend ;
0702   000b
0703   0821   month30: ldrv r8,30 ;
0704   001e
0705   0037   bra monthchkend ;
0706   0007
0707   0541   monthchk1: bitv r5,1 ; 
0708   0001
0709   1037   bra z,month31 ;
070a   fff5
070b   0037   bra month30 ;
070c   fff7
070d   003c   rts ; 
070e   1113   cmprv r1,1752 ; 
070f   06d8
0710   e037   bra le,not_ly ; 
0711   001b
0712   0116   check4: shr r1 ; 
0713   2037   bra c,not_ly ;
0714   0018
0715   0116   shr r1 ; 
0716   2037   bra c,not_ly ;
0717   0015
0718   1519   check100: mvrr r1,r5 ; 
0719   0421   ldrv r4,25 ; 
071a   0019
071b   003b   jsr division ;
071c   05ed
071d   330c   or r3,r3 ; 
071e   9037   bra ne,is_ly ; 
071f   0009
0720   6519   check400: mvrr r6,r5 ; 
0721   0421   ldrv r4,4 ; 
0722   0004
0723   003b   jsr division ;
0724   05ed
0725   330c   or r3,r3 ; 
0726   9037   bra ne,not_ly ; 
0727   0005
0728   0121   is_ly: ldrv r1,'hffff ;
0729   ffff
072a   0037   bra leapend ;
072b   0002
072c   110e   not_ly: xor r1,r1 ;
072d   003c   leapend: rts ; 
072e   883f   hw_irq1: uport t8 ;
072f   083f   uport f8 ;
0730   003d   rti ; 
0731   893f   hw_irq2: uport t9 ;
0732   093f   hw_irq2_1: uport f9 ;
0733   003d   rti ; 
0734   0520   ldr r5,digitdp ; 
0735   29fd
0736   660e   xor r6,r6 ; 
0737   0221   ldrv r2,'h0800 ; 
0738   0800
0739   0120   ldr r1,an_cnt ; 
073a   29fa
073b   1319   mvrr r1,r3 ; 
073c   120a   and r2,r1 ; 
073d   1037   bra z,ref7seg_2 ;
073e   0005
073f   0121   ldrv r1,'h0100 ; 
0740   0100
0741   0037   bra ref7seg_3 ;
0742   0002
0743   0115   ref7seg_2: shl l,r1 ; 
0744   1028   ref7seg_3: str r1,an_cnt ; 
0745   29fa
0746   0341   bitv r3,'h0100 ; 
0747   0100
0748   1037   bra z,dig2 ;
0749   000d
074a   5513   dig1: cmprv r5,1 ; 
074b   0001
074c   9037   bra ne,dig1_0 ; 
074d   0003
074e   0621   ldrv r6,'h0080 ; 
074f   0080
0750   0420   dig1_0: ldr r4,digit1 ;
0751   29fb
0752   040b   andv r4,'h000f ; 
0753   000f
0754   0037   bra outdig ; 
0755   002d
0756   0341   dig2: bitv r3,'h0200 ; 
0757   0200
0758   1037   bra z,dig3 ;
0759   000e
075a   5513   cmprv r5,2 ; 
075b   0002
075c   9037   bra ne,dig2_0 ; 
075d   0003
075e   0621   ldrv r6,'h0080 ; 
075f   0080
0760   0420   dig2_0: ldr r4,digit1 ;
0761   29fb
0762   040b   andv r4,'h00f0 ; 
0763   00f0
0764   0418   shr4 r4 ;
0765   0037   bra outdig ; 
0766   001c
0767   0341   dig3: bitv r3,'h0400 ; 
0768   0400
0769   1037   bra z,dig4 ;
076a   000d
076b   5513   cmprv r5,3 ; 
076c   0003
076d   9037   bra ne,dig3_0 ; 
076e   0003
076f   0621   ldrv r6,'h0080 ; 
0770   0080
0771   0420   dig3_0: ldr r4,digit2 ;
0772   29fc
0773   040b   andv r4,'h000f ; 
0774   000f
0775   0037   bra outdig ; 
0776   000c
0777   5513   dig4: cmprv r5,4 ; 
0778   0004
0779   9037   bra ne,dig4_0 ; 
077a   0003
077b   0621   ldrv r6,'h0080 ; 
077c   0080
077d   0420   dig4_0: ldr r4,digit2 ;
077e   29fc
077f   040b   andv r4,'h00f0 ; 
0780   00f0
0781   0418   shr4 r4 ;
0782   012e   outdig: ldpv p1,dig7seg_tab ; 
0783   0c7a
0784   040b   andv r4,'h000F ; 
0785   000f
0786   4144   ldpy p1,r4 ;
0787   141b   mvpr p1,r4 ;
0788   340c   or r4,r3 ; 
0789   640c   or r4,r6 ; 
078a   4034   outp r4,GPREG_00 ;
078b   0000
078c   0120   hw_irq3_0: ldr r1,tmr1msec ; 
078d   2a17
078e   110c   or r1,r1 ;
078f   1037   bra z,hw_irq3_1 ;
0790   0006
0791   0111   dec r1 ;
0792   1028   str r1,tmr1msec ; 
0793   2a17
0794   0037   bra hw_irq3_2 ;
0795   0002
0796   8b3e   hw_irq3_1: uflag tB ; 
0797   003d   hw_irq3_2: rti ;
0798   0220   hw_irq4: ldr r2,tmr1min ; 
0799   2a23
079a   0320   ldr r3,tmr1hour ; 
079b   2a22
079c   0420   ldr r4,tmr1date ; 
079d   2a21
079e   4719   mvrr r4,r7 ; 
079f   0520   ldr r5,tmr1month ; 
07a0   2a20
07a1   0620   ldr r6,tmr1year ; 
07a2   2a1f
07a3   0120   ldr r1,tmr1sec ; 
07a4   2a24
07a5   0110   inc r1 ;
07a6   1a19   mvrr r1,ra ;
07a7   0a0b   andv ra,'h000f ;
07a8   000f
07a9   aa13   cmprv ra,'h000a ;
07aa   000a
07ab   d037   bra lt,hw_irq4_s1 ;
07ac   0005
07ad   010b   andv r1,'hfff0 ;
07ae   fff0
07af   0103   addv r1,'h0010 ;
07b0   0010
07b1   1113   hw_irq4_s1: cmprv r1,'h0060 ; 
07b2   0060
07b3   d037   bra lt,hw_irq4_1 ;
07b4   006e
07b5   110e   xor r1,r1 ;
07b6   0210   inc r2 ;
07b7   2a19   mvrr r2,ra ;
07b8   0a0b   andv ra,'h000f ;
07b9   000f
07ba   aa13   cmprv ra,'h000a ;
07bb   000a
07bc   d037   bra lt,hw_irq4_u1 ;
07bd   0005
07be   020b   andv r2,'hfff0 ;
07bf   fff0
07c0   0203   addv r2,'h0010 ;
07c1   0010
07c2   2213   hw_irq4_u1: cmprv r2,'h0060 ; 
07c3   0060
07c4   d037   bra lt,hw_irq4_2 ;
07c5   005b
07c6   220e   xor r2,r2 ;
07c7   0310   inc r3 ;
07c8   3a19   mvrr r3,ra ;
07c9   0a0b   andv ra,'h000f ;
07ca   000f
07cb   aa13   cmprv ra,'h000a ;
07cc   000a
07cd   d037   bra lt,hw_irq4_h1 ;
07ce   0005
07cf   030b   andv r3,'hfff0 ;
07d0   fff0
07d1   0303   addv r3,'h0010 ;
07d2   0010
07d3   3313   hw_irq4_h1: cmprv r3,'h0024 ; 
07d4   0024
07d5   d037   bra lt,hw_irq4_3 ;
07d6   0048
07d7   330e   xor r3,r3 ;
07d8   040b   andv r4,'h00ff ;
07d9   00ff
07da   070b   andv r7,'hff00 ;
07db   ff00
07dc   0718   shr4 r7 ;
07dd   0718   shr4 r7 ;
07de   0710   inc r7 ;
07df   7713   cmprv r7,7 ; 
07e0   0007
07e1   d037   bra lt,hw_irq4_d1 ;
07e2   0002
07e3   770e   xor r7,r7 ; 
07e4   0717   hw_irq4_d1: shl4 r7 ;
07e5   0717   shl4 r7 ;
07e6   0410   inc r4 ; 
07e7   4a19   mvrr r4,ra ;
07e8   0a0b   andv ra,'h000f ;
07e9   000f
07ea   aa13   cmprv ra,'h000a ;
07eb   000a
07ec   d037   bra lt,hw_irq4_m1 ;
07ed   0005
07ee   040b   andv r4,'hfff0 ;
07ef   fff0
07f0   0403   addv r4,'h0010 ;
07f1   0010
07f2   003b   hw_irq4_m1: jsr monthchk ; 
07f3   06e2
07f4   8412   cmpr r4,r8 ; 
07f5   e037   bra le,hw_irq4_4 ;
07f6   0025
07f7   0421   ldrv r4,1 ;
07f8   0001
07f9   0510   inc r5 ;
07fa   5a19   mvrr r5,ra ;
07fb   0a0b   andv ra,'h000f ;
07fc   000f
07fd   aa13   cmprv ra,'h000a ;
07fe   000a
07ff   d037   bra lt,hw_irq4_m2 ;
0800   0005
0801   050b   andv r5,'hfff0 ;
0802   fff0
0803   0503   addv r5,'h0010 ;
0804   0010
0805   5513   hw_irq4_m2: cmprv r5,'h0012 ; 
0806   0012
0807   e037   bra le,hw_irq4_5 ;
0808   0011
0809   0521   ldrv r5,1 ; 
080a   0001
080b   0610   inc r6 ;
080c   5a19   mvrr r5,ra ;
080d   0a0b   andv ra,'h000f ;
080e   000f
080f   aa13   cmprv ra,'h000a ;
0810   000a
0811   d037   bra lt,hw_irq4_y1 ;
0812   0005
0813   050b   andv r5,'hfff0 ;
0814   fff0
0815   0503   addv r5,'h0010 ;
0816   0010
0817   6028   hw_irq4_y1: str r6,tmr1year ;
0818   2a1f
0819   5028   hw_irq4_5: str r5,tmr1month ;
081a   2a20
081b   740c   hw_irq4_4: or r4,r7 ;
081c   4028   str r4,tmr1date ;
081d   2a21
081e   3028   hw_irq4_3: str r3,tmr1hour ;
081f   2a22
0820   2028   hw_irq4_2: str r2,tmr1min ;
0821   2a23
0822   1028   hw_irq4_1: str r1,tmr1sec ;
0823   2a24
0824   8d3e   uflag tD ; 
0825   003d   rti ; 
0826   003d   rti ; 
0827   0120   myapp: ldr r1,myapp_val ;
0828   2a26
0829   010b   andv r1,7 ; 
082a   0007
082b   012e   ldpv p1,apptab ;
082c   29ee
082d   1144   ldpy p1,r1 ; 
082e   013a   jmpp p1 ; 
082f   003c   nothing: rts ; 
0830   8239   d7s_clock: jmp t2,d7s_clock2 ;
0831   083c
0832   0220   d7s_clock1: ldr r2,tmr1min ;
0833   2a23
0834   2028   str r2,digit1 ;
0835   29fb
0836   0220   ldr r2,tmr1hour ;
0837   2a22
0838   2028   str r2,digit2 ;
0839   29fc
083a   0037   bra d7s_clock4 ;
083b   0009
083c   0220   d7s_clock2: ldr r2,tmr1sec ;
083d   2a24
083e   2028   str r2,digit1 ;
083f   29fb
0840   0220   ldr r2,tmr1min ;
0841   2a23
0842   2028   str r2,digit2 ;
0843   29fc
0844   0221   d7s_clock4: ldrv r2,3 ;
0845   0003
0846   2028   str r2,digitdp ; 
0847   29fd
0848   003c   rts ; 
0849   003b   jsr dis_xadc0 ; 
084a   088e
084b   5223   ldrx r2,p5,0 ;
084c   0000
084d   003b   jsr hex2dec ;
084e   0616
084f   0317   shl4 r3 ; 
0850   030d   orv r3,'h000C ;
0851   000c
0852   0421   ldrv r4,2 ; 
0853   0002
0854   0039   jmp d7s_adcx ;
0855   087f
0856   003b   jsr dis_xadc1 ; 
0857   089d
0858   5223   ldrx r2,p5,1 ;
0859   0001
085a   003b   jsr hex2dec ;
085b   0616
085c   0317   shl4 r3 ;
085d   030d   orv r3,'h000F ; 
085e   000f
085f   0421   ldrv r4,2 ; 
0860   0002
0861   0039   jmp d7s_adcx ;
0862   087f
0863   003b   jsr dis_xadc2 ; 
0864   08ac
0865   5223   ldrx r2,p5,2 ;
0866   0002
0867   003b   jsr hex2dec ;
0868   0616
0869   0421   ldrv r4,4 ; 
086a   0004
086b   0039   jmp d7s_adcx ;
086c   087f
086d   003b   jsr dis_xadc3 ; 
086e   08bb
086f   5223   ldrx r2,p5,3 ;
0870   0003
0871   003b   jsr hex2dec ;
0872   0616
0873   0421   ldrv r4,4 ; 
0874   0004
0875   0039   jmp d7s_adcx ;
0876   087f
0877   003b   jsr dis_xadc4 ; 
0878   08ca
0879   5223   ldrx r2,p5,4 ;
087a   0004
087b   003b   jsr hex2dec ;
087c   0616
087d   0421   ldrv r4,4 ; 
087e   0004
087f   3219   d7s_adcx: mvrr r3,r2 ;
0880   020b   andv r2,'h00ff ;
0881   00ff
0882   2028   str r2,digit1 ;
0883   29fb
0884   3219   mvrr r3,r2 ;
0885   0218   shr4 r2 ;
0886   0218   shr4 r2 ;
0887   2028   str r2,digit2 ;
0888   29fc
0889   0221   ldrv r2,2 ;
088a   0002
088b   4028   str r4,digitdp ; 
088c   29fd
088d   003c   rts ; 
088e   052e   dis_xadc0: ldpv p5,xadcreg ;
088f   2a28
0890   0521   ldrv r5,'h0100 ; 
0891   0100
0892   5034   outp r5,GPREG_01 ; 
0893   0001
0894   0721   ldrv r7,ADC_DELAY ; 
0895   0032
0896   003b   jsr delay ;
0897   05d2
0898   0232   inp r2,GPREG_09 ; 
0899   0009
089a   252a   strx r2,p5,0 ;
089b   0000
089c   003c   rts ; 
089d   052e   dis_xadc1: ldpv p5,xadcreg ;
089e   2a28
089f   0521   ldrv r5,'h0200 ; 
08a0   0200
08a1   5034   outp r5,GPREG_01 ; 
08a2   0001
08a3   0721   ldrv r7,ADC_DELAY ; 
08a4   0032
08a5   003b   jsr delay ;
08a6   05d2
08a7   0232   inp r2,GPREG_09 ; 
08a8   0009
08a9   252a   strx r2,p5,1 ;
08aa   0001
08ab   003c   rts ; 
08ac   052e   dis_xadc2: ldpv p5,xadcreg ;
08ad   2a28
08ae   0521   ldrv r5,'h0301 ; 
08af   0301
08b0   5034   outp r5,GPREG_01 ; 
08b1   0001
08b2   0721   ldrv r7,ADC_DELAY ; 
08b3   0032
08b4   003b   jsr delay ;
08b5   05d2
08b6   0232   inp r2,GPREG_09 ; 
08b7   0009
08b8   252a   strx r2,p5,2 ;
08b9   0002
08ba   003c   rts ; 
08bb   052e   dis_xadc3: ldpv p5,xadcreg ;
08bc   2a28
08bd   0521   ldrv r5,'h0302 ; 
08be   0302
08bf   5034   outp r5,GPREG_01 ; 
08c0   0001
08c1   0721   ldrv r7,ADC_DELAY ; 
08c2   0032
08c3   003b   jsr delay ;
08c4   05d2
08c5   0232   inp r2,GPREG_09 ; 
08c6   0009
08c7   252a   strx r2,p5,3 ;
08c8   0003
08c9   003c   rts ; 
08ca   052e   dis_xadc4: ldpv p5,xadcreg ;
08cb   2a28
08cc   0521   ldrv r5,'h0303 ; 
08cd   0303
08ce   5034   outp r5,GPREG_01 ; 
08cf   0001
08d0   0721   ldrv r7,ADC_DELAY ; 
08d1   0032
08d2   003b   jsr delay ;
08d3   05d2
08d4   0232   inp r2,GPREG_09 ; 
08d5   0009
08d6   252a   strx r2,p5,4 ;
08d7   0004
08d8   003c   rts ; 
08d9   0120   walking: ldr r1,pattern1 ;
08da   29f9
08db   0220   ldr r2,pattern2 ;
08dc   2a06
08dd   1034   outp r1,S1REG_1 ;
08de   0101
08df   2034   outp r2,S1REG_0 ;
08e0   0100
08e1   0115   shl r1 ;
08e2   1215   shl k,r2 ;
08e3   0241   bitv r2,'h80 ;
08e4   0080
08e5   1037   bra z,walking1 ;
08e6   0003
08e7   010d   orv r1,1 ;
08e8   0001
08e9   1028   walking1: str r1,pattern1 ;
08ea   29f9
08eb   2028   str r2,pattern2 ;
08ec   2a06
08ed   003c   rts ; 
08ee   003b   prn_xadc: jsr get_xadc0 ;
08ef   08fd
08f0   003b   jsr get_xadc1 ;
08f1   0934
08f2   003b   jsr get_xadc2 ;
08f3   0957
08f4   003b   jsr get_xadc3 ;
08f5   097a
08f6   0c2e   ldpv pC,line_m ; 
08f7   0a83
08f8   003b   jsr tx_line ;
08f9   0449
08fa   003b   jsr tx_prmt ; 
08fb   048e
08fc   003c   rts ; 
08fd   052e   get_xadc0: ldpv p5,xadcreg ;
08fe   2a28
08ff   0521   ldrv r5,'h0000 ; 
0900   0000
0901   5034   outp r5,GPREG_01 ; 
0902   0001
0903   0721   ldrv r7,ADC_DELAY ; 
0904   0032
0905   003b   jsr delay ;
0906   05d2
0907   0232   inp r2,GPREG_08 ; 
0908   0008
0909   003b   jsr dishex4 ; 
090a   04b0
090b   0c2e   ldpv pC,adc0_m ; 
090c   0bf2
090d   003b   jsr tx_line ;
090e   0449
090f   003b   jsr tx_prmt ; 
0910   048e
0911   0521   ldrv r5,'h0100 ; 
0912   0100
0913   5034   outp r5,GPREG_01 ; 
0914   0001
0915   0232   inp r2,GPREG_09 ; 
0916   0009
0917   252a   strx r2,p5,0 ;
0918   0000
0919   003b   jsr dishex4 ; 
091a   04b0
091b   0c2e   ldpv pC,adc1_m ; 
091c   0bfc
091d   003b   jsr tx_line ;
091e   0449
091f   003b   jsr tx_prmt ; 
0920   048e
0921   0521   ldrv r5,'h0200 ; 
0922   0200
0923   5034   outp r5,GPREG_01 ; 
0924   0001
0925   0232   inp r2,GPREG_09 ; 
0926   0009
0927   252a   strx r2,p5,1 ;
0928   0001
0929   003b   jsr dishex4 ; 
092a   04b0
092b   0c2e   ldpv pC,adc2_m ; 
092c   0c06
092d   003b   jsr tx_line ;
092e   0449
092f   003b   jsr tx_prmt ; 
0930   048e
0931   003b   jsr tx_prmt ; 
0932   048e
0933   003c   rts ; 
0934   052e   get_xadc1: ldpv p5,xadcreg ;
0935   2a28
0936   0521   ldrv r5,'h0301 ; 
0937   0301
0938   5034   outp r5,GPREG_01 ; 
0939   0001
093a   0721   ldrv r7,ADC_DELAY ; 
093b   0032
093c   003b   jsr delay ;
093d   05d2
093e   0232   inp r2,GPREG_08 ; 
093f   0008
0940   003b   jsr dishex4 ; 
0941   04b0
0942   0c2e   ldpv pC,adc0_m ; 
0943   0bf2
0944   003b   jsr tx_line ;
0945   0449
0946   003b   jsr tx_prmt ; 
0947   048e
0948   0232   inp r2,GPREG_09 ; 
0949   0009
094a   252a   strx r2,p5,2 ;
094b   0002
094c   003b   jsr dishex4 ; 
094d   04b0
094e   0c2e   ldpv pC,adc3_m ; 
094f   0c10
0950   003b   jsr tx_line ;
0951   0449
0952   003b   jsr tx_prmt ; 
0953   048e
0954   003b   jsr tx_prmt ; 
0955   048e
0956   003c   rts ; 
0957   052e   get_xadc2: ldpv p5,xadcreg ;
0958   2a28
0959   0521   ldrv r5,'h0302 ; 
095a   0302
095b   5034   outp r5,GPREG_01 ; 
095c   0001
095d   0721   ldrv r7,ADC_DELAY ; 
095e   0032
095f   003b   jsr delay ;
0960   05d2
0961   0232   inp r2,GPREG_08 ; 
0962   0008
0963   003b   jsr dishex4 ; 
0964   04b0
0965   0c2e   ldpv pC,adc0_m ; 
0966   0bf2
0967   003b   jsr tx_line ;
0968   0449
0969   003b   jsr tx_prmt ; 
096a   048e
096b   0232   inp r2,GPREG_09 ; 
096c   0009
096d   252a   strx r2,p5,3 ;
096e   0003
096f   003b   jsr dishex4 ; 
0970   04b0
0971   0c2e   ldpv pC,adc3_m ; 
0972   0c10
0973   003b   jsr tx_line ;
0974   0449
0975   003b   jsr tx_prmt ; 
0976   048e
0977   003b   jsr tx_prmt ; 
0978   048e
0979   003c   rts ; 
097a   052e   get_xadc3: ldpv p5,xadcreg ;
097b   2a28
097c   0521   ldrv r5,'h0303 ; 
097d   0303
097e   5034   outp r5,GPREG_01 ; 
097f   0001
0980   0721   ldrv r7,ADC_DELAY ; 
0981   0032
0982   003b   jsr delay ;
0983   05d2
0984   0232   inp r2,GPREG_08 ; 
0985   0008
0986   003b   jsr dishex4 ; 
0987   04b0
0988   0c2e   ldpv pC,adc0_m ; 
0989   0bf2
098a   003b   jsr tx_line ;
098b   0449
098c   003b   jsr tx_prmt ; 
098d   048e
098e   0232   inp r2,GPREG_09 ; 
098f   0009
0990   252a   strx r2,p5,4 ;
0991   0004
0992   003b   jsr dishex4 ; 
0993   04b0
0994   0c2e   ldpv pC,adc4_m ; 
0995   0c1f
0996   003b   jsr tx_line ;
0997   0449
0998   003b   jsr tx_prmt ; 
0999   048e
099a   003b   jsr tx_prmt ; 
099b   048e
099c   003c   rts ; 
099d   0c2e   lyear: ldpv pC,decval4_m ; 
099e   0b77
099f   003b   jsr tx_line ;
09a0   0449
09a1   003b   jsr asc2hex ; 
09a2   068e
09a3   2119   mvrr r2,r1 ;
09a4   003b   jsr dec2hex ;
09a5   0640
09a6   3028   str r3,leapyear ; 
09a7   2a25
09a8   003b   jsr tx_prmt ;
09a9   048e
09aa   0120   ldr r1,leapyear ;
09ab   2a25
09ac   003b   jsr leap_year ;
09ad   070e
09ae   110c   or r1,r1 ;
09af   1037   bra z,lyear_n ;
09b0   0005
09b1   0c2e   ldpv pC,yes_m ; 
09b2   0a4f
09b3   0037   bra lyear_e ;
09b4   0003
09b5   0c2e   lyear_n: ldpv pC,no_m ; 
09b6   0a54
09b7   003b   lyear_e: jsr tx_line ;
09b8   0449
09b9   003b   jsr tx_prmt ;
09ba   048e
09bb   003c   rts ; 
09bc   0020   version_m: dt " SW code version__ : 0503 2024 -v1.0";
09bd   0053
09be   0057
09bf   0020
09c0   0063
09c1   006f
09c2   0064
09c3   0065
09c4   0020
09c5   0076
09c6   0065
09c7   0072
09c8   0073
09c9   0069
09ca   006f
09cb   006e
09cc   005f
09cd   005f
09ce   0020
09cf   003a
09d0   0020
09d1   0030
09d2   0035
09d3   0030
09d4   0033
09d5   0020
09d6   0032
09d7   0030
09d8   0032
09d9   0034
09da   0020
09db   002d
09dc   0076
09dd   0031
09de   002e
09df   0030
09e0   0000
09e1   0020   hwversion_m: dt " HW code version__ : ";
09e2   0048
09e3   0057
09e4   0020
09e5   0063
09e6   006f
09e7   0064
09e8   0065
09e9   0020
09ea   0076
09eb   0065
09ec   0072
09ed   0073
09ee   0069
09ef   006f
09f0   006e
09f1   005f
09f2   005f
09f3   0020
09f4   003a
09f5   0020
09f6   0000
09f7   0020   codelength_m: dt " Program/code ends : ";
09f8   0050
09f9   0072
09fa   006f
09fb   0067
09fc   0072
09fd   0061
09fe   006d
09ff   002f
0a00   0063
0a01   006f
0a02   0064
0a03   0065
0a04   0020
0a05   0065
0a06   006e
0a07   0064
0a08   0073
0a09   0020
0a0a   003a
0a0b   0020
0a0c   0000
0a0d   0020   datalength_m: dt " RAM/data ends____ : ";
0a0e   0052
0a0f   0041
0a10   004d
0a11   002f
0a12   0064
0a13   0061
0a14   0074
0a15   0061
0a16   0020
0a17   0065
0a18   006e
0a19   0064
0a1a   0073
0a1b   005f
0a1c   005f
0a1d   005f
0a1e   005f
0a1f   0020
0a20   003a
0a21   0020
0a22   0000
0a23   0020   bootlength_m: dt " Boot code starts_ : ";
0a24   0042
0a25   006f
0a26   006f
0a27   0074
0a28   0020
0a29   0063
0a2a   006f
0a2b   0064
0a2c   0065
0a2d   0020
0a2e   0073
0a2f   0074
0a30   0061
0a31   0072
0a32   0074
0a33   0073
0a34   005f
0a35   0020
0a36   003a
0a37   0020
0a38   0000
0a39   0020   ipversion_m: dt " Opus1 ip version_ : ";
0a3a   004f
0a3b   0070
0a3c   0075
0a3d   0073
0a3e   0031
0a3f   0020
0a40   0069
0a41   0070
0a42   0020
0a43   0076
0a44   0065
0a45   0072
0a46   0073
0a47   0069
0a48   006f
0a49   006e
0a4a   005f
0a4b   0020
0a4c   003a
0a4d   0020
0a4e   0000
0a4f   0020   yes_m: dt " YES";
0a50   0059
0a51   0045
0a52   0053
0a53   0000
0a54   0020   no_m: dt " NO";
0a55   004e
0a56   004f
0a57   0000
0a58   0020   not_yet_m: dt " Not implemented yet";
0a59   004e
0a5a   006f
0a5b   0074
0a5c   0020
0a5d   0069
0a5e   006d
0a5f   0070
0a60   006c
0a61   0065
0a62   006d
0a63   0065
0a64   006e
0a65   0074
0a66   0065
0a67   0064
0a68   0020
0a69   0079
0a6a   0065
0a6b   0074
0a6c   0000
0a6d   0020   done_m: dt " Done";
0a6e   0044
0a6f   006f
0a70   006e
0a71   0065
0a72   0000
0a73   0020   hex_m: dt " Hexadecimal : ";
0a74   0048
0a75   0065
0a76   0078
0a77   0061
0a78   0064
0a79   0065
0a7a   0063
0a7b   0069
0a7c   006d
0a7d   0061
0a7e   006c
0a7f   0020
0a80   003a
0a81   0020
0a82   0000
0a83   002d   line_m: dt "-----------------------------------";
0a84   002d
0a85   002d
0a86   002d
0a87   002d
0a88   002d
0a89   002d
0a8a   002d
0a8b   002d
0a8c   002d
0a8d   002d
0a8e   002d
0a8f   002d
0a90   002d
0a91   002d
0a92   002d
0a93   002d
0a94   002d
0a95   002d
0a96   002d
0a97   002d
0a98   002d
0a99   002d
0a9a   002d
0a9b   002d
0a9c   002d
0a9d   002d
0a9e   002d
0a9f   002d
0aa0   002d
0aa1   002d
0aa2   002d
0aa3   002d
0aa4   002d
0aa5   002d
0aa6   0000
0aa7   002d   input_m: dt "-- Inputs --";
0aa8   002d
0aa9   0020
0aaa   0049
0aab   006e
0aac   0070
0aad   0075
0aae   0074
0aaf   0073
0ab0   0020
0ab1   002d
0ab2   002d
0ab3   0000
0ab4   002d   output_m: dt "-- Outputs --";
0ab5   002d
0ab6   0020
0ab7   004f
0ab8   0075
0ab9   0074
0aba   0070
0abb   0075
0abc   0074
0abd   0073
0abe   0020
0abf   002d
0ac0   002d
0ac1   0000
0ac2   0020   memof_m: dt " Internal Memory Access";
0ac3   0049
0ac4   006e
0ac5   0074
0ac6   0065
0ac7   0072
0ac8   006e
0ac9   0061
0aca   006c
0acb   0020
0acc   004d
0acd   0065
0ace   006d
0acf   006f
0ad0   0072
0ad1   0079
0ad2   0020
0ad3   0041
0ad4   0063
0ad5   0063
0ad6   0065
0ad7   0073
0ad8   0073
0ad9   0000
0ada   0020   memon_m: dt " External Memory Access";
0adb   0045
0adc   0078
0add   0074
0ade   0065
0adf   0072
0ae0   006e
0ae1   0061
0ae2   006c
0ae3   0020
0ae4   004d
0ae5   0065
0ae6   006d
0ae7   006f
0ae8   0072
0ae9   0079
0aea   0020
0aeb   0041
0aec   0063
0aed   0063
0aee   0065
0aef   0073
0af0   0073
0af1   0000
0af2   0020   membyte_m: dt " Byte Memory Access";
0af3   0042
0af4   0079
0af5   0074
0af6   0065
0af7   0020
0af8   004d
0af9   0065
0afa   006d
0afb   006f
0afc   0072
0afd   0079
0afe   0020
0aff   0041
0b00   0063
0b01   0063
0b02   0065
0b03   0073
0b04   0073
0b05   0000
0b06   0020   memword_m: dt " Word Memory Access";
0b07   0057
0b08   006f
0b09   0072
0b0a   0064
0b0b   0020
0b0c   004d
0b0d   0065
0b0e   006d
0b0f   006f
0b10   0072
0b11   0079
0b12   0020
0b13   0041
0b14   0063
0b15   0063
0b16   0065
0b17   0073
0b18   0073
0b19   0000
0b1a   0020   hexval2_m: dt " Enter hex value xx[RET] = ";
0b1b   0045
0b1c   006e
0b1d   0074
0b1e   0065
0b1f   0072
0b20   0020
0b21   0068
0b22   0065
0b23   0078
0b24   0020
0b25   0076
0b26   0061
0b27   006c
0b28   0075
0b29   0065
0b2a   0020
0b2b   0078
0b2c   0078
0b2d   005b
0b2e   0052
0b2f   0045
0b30   0054
0b31   005d
0b32   0020
0b33   003d
0b34   0020
0b35   0000
0b36   0020   hexval4_m: dt " Enter hex value xxxx[RET] = ";
0b37   0045
0b38   006e
0b39   0074
0b3a   0065
0b3b   0072
0b3c   0020
0b3d   0068
0b3e   0065
0b3f   0078
0b40   0020
0b41   0076
0b42   0061
0b43   006c
0b44   0075
0b45   0065
0b46   0020
0b47   0078
0b48   0078
0b49   0078
0b4a   0078
0b4b   005b
0b4c   0052
0b4d   0045
0b4e   0054
0b4f   005d
0b50   0020
0b51   003d
0b52   0020
0b53   0000
0b54   0020   hexval8_m: dt " Enter hex value xxxx,yyyy[RET] = ";
0b55   0045
0b56   006e
0b57   0074
0b58   0065
0b59   0072
0b5a   0020
0b5b   0068
0b5c   0065
0b5d   0078
0b5e   0020
0b5f   0076
0b60   0061
0b61   006c
0b62   0075
0b63   0065
0b64   0020
0b65   0078
0b66   0078
0b67   0078
0b68   0078
0b69   002c
0b6a   0079
0b6b   0079
0b6c   0079
0b6d   0079
0b6e   005b
0b6f   0052
0b70   0045
0b71   0054
0b72   005d
0b73   0020
0b74   003d
0b75   0020
0b76   0000
0b77   0020   decval4_m: dt " Enter decimal [RET] = ";
0b78   0045
0b79   006e
0b7a   0074
0b7b   0065
0b7c   0072
0b7d   0020
0b7e   0064
0b7f   0065
0b80   0063
0b81   0069
0b82   006d
0b83   0061
0b84   006c
0b85   0020
0b86   005b
0b87   0052
0b88   0045
0b89   0054
0b8a   005d
0b8b   0020
0b8c   003d
0b8d   0020
0b8e   0000
0b8f   0020   enbfile_m: dt " Ready to load program with L cmd";
0b90   0052
0b91   0065
0b92   0061
0b93   0064
0b94   0079
0b95   0020
0b96   0074
0b97   006f
0b98   0020
0b99   006c
0b9a   006f
0b9b   0061
0b9c   0064
0b9d   0020
0b9e   0070
0b9f   0072
0ba0   006f
0ba1   0067
0ba2   0072
0ba3   0061
0ba4   006d
0ba5   0020
0ba6   0077
0ba7   0069
0ba8   0074
0ba9   0068
0baa   0020
0bab   004c
0bac   0020
0bad   0063
0bae   006d
0baf   0064
0bb0   0000
0bb1   0020   loadfile_m: dt " Send .mem file";
0bb2   0053
0bb3   0065
0bb4   006e
0bb5   0064
0bb6   0020
0bb7   002e
0bb8   006d
0bb9   0065
0bba   006d
0bbb   0020
0bbc   0066
0bbd   0069
0bbe   006c
0bbf   0065
0bc0   0000
0bc1   0020   treset_m: dt " Target Reset done, tap SPACE to start";
0bc2   0054
0bc3   0061
0bc4   0072
0bc5   0067
0bc6   0065
0bc7   0074
0bc8   0020
0bc9   0052
0bca   0065
0bcb   0073
0bcc   0065
0bcd   0074
0bce   0020
0bcf   0064
0bd0   006f
0bd1   006e
0bd2   0065
0bd3   002c
0bd4   0020
0bd5   0074
0bd6   0061
0bd7   0070
0bd8   0020
0bd9   0053
0bda   0050
0bdb   0041
0bdc   0043
0bdd   0045
0bde   0020
0bdf   0074
0be0   006f
0be1   0020
0be2   0073
0be3   0074
0be4   0061
0be5   0072
0be6   0074
0be7   0000
0be8   003a   colon_m: dt ": ";
0be9   0020
0bea   0000
0beb   000d   promptx2: dw CR; 
0bec   000a   dw LF; 
0bed   000d   prompt: dw CR; 
0bee   000a   promptlf: dw LF; 
0bef   0000   dw NULL; 
0bf0   000d   promptcr: dw CR; 
0bf1   0000   dw NULL; 
0bf2   0020   adc0_m: dt " Raw data";
0bf3   0052
0bf4   0061
0bf5   0077
0bf6   0020
0bf7   0064
0bf8   0061
0bf9   0074
0bfa   0061
0bfb   0000
0bfc   0020   adc1_m: dt " Degree C";
0bfd   0044
0bfe   0065
0bff   0067
0c00   0072
0c01   0065
0c02   0065
0c03   0020
0c04   0043
0c05   0000
0c06   0020   adc2_m: dt " Degree F";
0c07   0044
0c08   0065
0c09   0067
0c0a   0072
0c0b   0065
0c0c   0065
0c0d   0020
0c0e   0046
0c0f   0000
0c10   0020   adc3_m: dt " vccint/vccaux";
0c11   0076
0c12   0063
0c13   0063
0c14   0069
0c15   006e
0c16   0074
0c17   002f
0c18   0076
0c19   0063
0c1a   0063
0c1b   0061
0c1c   0075
0c1d   0078
0c1e   0000
0c1f   0020   adc4_m: dt " vp/vn";
0c20   0076
0c21   0070
0c22   002f
0c23   0076
0c24   006e
0c25   0000
0c26   0001   h2btab: dw 'h0001,'h0002,'h0004,'h0008 ;
0c27   0002
0c28   0004
0c29   0008
0c2a   0010   dw 'h0010,'h0020,'h0040,'h0080 ;
0c2b   0020
0c2c   0040
0c2d   0080
0c2e   0100   dw 'h0100,'h0200,'h0400,'h0800 ;
0c2f   0200
0c30   0400
0c31   0800
0c32   1000   dw 'h1000,'h2000,'h4000,'h8000 ;
0c33   2000
0c34   4000
0c35   8000
0c36   001b   initx_m: dw ESC; 
0c37   005b   dt "[8;60;90t";
0c38   0038
0c39   003b
0c3a   0036
0c3b   0030
0c3c   003b
0c3d   0039
0c3e   0030
0c3f   0074
0c40   0000
0c41   001b   fg_blk_m: dw ESC;
0c42   005b   dt "[30m";
0c43   0033
0c44   0030
0c45   006d
0c46   0000
0c47   001b   fg_red_m: dw ESC;
0c48   005b   dt "[91m";
0c49   0039
0c4a   0031
0c4b   006d
0c4c   0000
0c4d   001b   fg_grn_m: dw ESC;
0c4e   005b   dt "[92m";
0c4f   0039
0c50   0032
0c51   006d
0c52   0000
0c53   001b   fg_yel_m: dw ESC;
0c54   005b   dt "[93m";
0c55   0039
0c56   0033
0c57   006d
0c58   0000
0c59   001b   fg_blu_m: dw ESC;
0c5a   005b   dt "[94m";
0c5b   0039
0c5c   0034
0c5d   006d
0c5e   0000
0c5f   001b   fg_mag_m: dw ESC;
0c60   005b   dt "[95m";
0c61   0039
0c62   0035
0c63   006d
0c64   0000
0c65   001b   fg_cya_m: dw ESC;
0c66   005b   dt "[96m";
0c67   0039
0c68   0036
0c69   006d
0c6a   0000
0c6b   001b   fg_wht_m: dw ESC;
0c6c   005b   dt "[97m";
0c6d   0039
0c6e   0037
0c6f   006d
0c70   0000
0c71   001b   cls_m: dw ESC ; 
0c72   005b   dt "[2J" ; 
0c73   0032
0c74   004a
0c75   0000
0c76   001b   chome_m: dw ESC ; 
0c77   005b   dt "[H" ; 
0c78   0048
0c79   0000
0c7a   003f   dig7seg_tab: dw 'h003F ; 
0c7b   0006   dw 'h0006 ; 
0c7c   005b   dw 'h005B ; 
0c7d   004f   dw 'h004F ; 
0c7e   0066   dw 'h0066 ; 
0c7f   006d   dw 'h006D ; 
0c80   007d   dw 'h007D ; 
0c81   0007   dw 'h0007 ; 
0c82   007f   dw 'h007F ; 
0c83   0067   dw 'h0067 ; 
0c84   0077   dw 'h0077 ; 
0c85   007c   dw 'h007C ; 
0c86   0039   dw 'h0039 ; 
0c87   005e   dw 'h005E ; 
0c88   0079   dw 'h0079 ; 
0c89   0071   dw 'h0071 ; 
0c8a   0061   kpst00: dw "a" ,"J" , d_appset, kpst40; 
0c8b   004a
0c8c   0141
0c8d   0d62
0c8e   0073   dw "s" ,"J" , d_sysset, kpst30; 
0c8f   004a
0c90   0147
0c91   0d1e
0c92   0064   dw "d" ,"J" , d_debugq, kpst20; 
0c93   004a
0c94   014d
0c95   0d12
0c96   0076   dw "v" ,"J" , d_prgver, kpst00; 
0c97   004a
0c98   00d2
0c99   0c8a
0c9a   0062   dw "b" ,"J" , d_help, kpst00; 
0c9b   004a
0c9c   0159
0c9d   0c8a
0c9e   0068   dw "h" ,"J" , d_help_io,kpst00; 
0c9f   004a
0ca0   0163
0ca1   0c8a
0ca2   0000   dw NULL ,"J" , d_menu, kpst00; 
0ca3   004a
0ca4   013b
0ca5   0c8a
0ca6   0041   kpst10: dw "A" ,"J" , d_mema, kpst10; 
0ca7   004a
0ca8   020b
0ca9   0ca6
0caa   0042   dw "B" ,"J" , d_memb, kpst10; 
0cab   004a
0cac   0225
0cad   0ca6
0cae   0050   dw "P" ,"J", d_pagenum,kpst10; 
0caf   004a
0cb0   05c6
0cb1   0ca6
0cb2   0064   dw "d" ,"J" , memdump, kpst10; 
0cb3   004a
0cb4   035d
0cb5   0ca6
0cb6   006e   dw "n" ,"J" , memnext, kpst10; 
0cb7   004a
0cb8   0356
0cb9   0ca6
0cba   0066   dw "f" ,"J" , memfill, kpst10; 
0cbb   004a
0cbc   03e7
0cbd   0ca6
0cbe   006c   dw "l" ,"J" , memlen, kpst10; 
0cbf   004a
0cc0   03da
0cc1   0ca6
0cc2   006d   dw "m" ,"S" , s_bitop, wpst01; 
0cc3   0053
0cc4   0243
0cc5   0d9a
0cc6   0077   dw "w" ,"S" , s_bitop, wpst01; 
0cc7   0053
0cc8   0243
0cc9   0d9a
0cca   0073   dw "s" ,"S" , s_bitop wpst01; 
0ccb   0053
0ccc   0243
0ccd   0d9a
0cce   0063   dw "c" ,"S" , s_bitop, wpst01; 
0ccf   0053
0cd0   0243
0cd1   0d9a
0cd2   0074   dw "t" ,"S" , s_bitop, wpst01; 
0cd3   0053
0cd4   0243
0cd5   0d9a
0cd6   0069   dw "i" ,"S" , s_bitop, wpst01; 
0cd7   0053
0cd8   0243
0cd9   0d9a
0cda   0061   dw "a" ,"S" , s_bitop, wpst01; 
0cdb   0053
0cdc   0243
0cdd   0d9a
0cde   006f   dw "o" ,"S" , s_bitop, wpst01; 
0cdf   0053
0ce0   0243
0ce1   0d9a
0ce2   0065   dw "e" ,"S" , s_bitop, wpst01; 
0ce3   0053
0ce4   0243
0ce5   0d9a
0ce6   0062   dw "b" ,"J" , d_base, kpst10; 
0ce7   004a
0ce8   0238
0ce9   0ca6
0cea   0072   dw "r" ,"J" , d_aregs, kpst10; 
0ceb   004a
0cec   01b3
0ced   0ca6
0cee   0052   dw "R" ,"J", d_regdump,kpst10; 
0cef   004a
0cf0   0190
0cf1   0ca6
0cf2   0049   dw "I" ,"J" , irq_set, kpst10; 
0cf3   004a
0cf4   05b5
0cf5   0ca6
0cf6   0076   dw "v" ,"J" , vardump, kpst10; 
0cf7   004a
0cf8   03ba
0cf9   0ca6
0cfa   0068   dw "h" ,"J" , d_helpd, kpst10; 
0cfb   004a
0cfc   0181
0cfd   0ca6
0cfe   0078   dw "x" ,"J" , d_menu, kpst00; 
0cff   004a
0d00   013b
0d01   0c8a
0d02   0057   dw "W" ,"J" , d_pcode, kpst10; 
0d03   004a
0d04   0593
0d05   0ca6
0d06   004c   dw "L" ,"J" , jmp_boot, kpst10; 
0d07   004a
0d08   05ab
0d09   0ca6
0d0a   0020   dw " " ,"J" , d_debug, kpst10;
0d0b   004a
0d0c   0153
0d0d   0ca6
0d0e   0000   dw NULL ,"J" , d_nothing,kpst10;
0d0f   004a
0d10   018f
0d11   0ca6
0d12   0059   kpst20: dw "Y" ,"J" , d_debug, kpst10; 
0d13   004a
0d14   0153
0d15   0ca6
0d16   0020   dw " " ,"J" , d_menu, kpst00;
0d17   004a
0d18   013b
0d19   0c8a
0d1a   0000   dw NULL ,"J" , d_menu, kpst00;
0d1b   004a
0d1c   013b
0d1d   0c8a
0d1e   0074   kpst30: dw "t" ,"J", d_targetrst, kpst30; 
0d1f   004a
0d20   0574
0d21   0d1e
0d22   0059   dw "Y" ,"J", setyear, kpst30; 
0d23   004a
0d24   04e4
0d25   0d1e
0d26   004d   dw "M" ,"J", setmonth, kpst30; 
0d27   004a
0d28   04ef
0d29   0d1e
0d2a   0044   dw "D" ,"J", setdate, kpst30; 
0d2b   004a
0d2c   04fa
0d2d   0d1e
0d2e   0048   dw "H" ,"J", sethour, kpst30; 
0d2f   004a
0d30   0505
0d31   0d1e
0d32   0055   dw "U" ,"J", setmin, kpst30; 
0d33   004a
0d34   0515
0d35   0d1e
0d36   0053   dw "S" ,"J", setsec, kpst30; 
0d37   004a
0d38   0523
0d39   0d1e
0d3a   004c   dw "L" ,"J", lyear, kpst30; 
0d3b   004a
0d3c   099d
0d3d   0d1e
0d3e   006b   dw "k" ,"J", d_rtcval, kpst30; 
0d3f   004a
0d40   0116
0d41   0d1e
0d42   0063   dw "c" ,"J", set_creg, kpst30; 
0d43   004a
0d44   053c
0d45   0d1e
0d46   0072   dw "r" ,"J", set_rreg, kpst30; 
0d47   004a
0d48   054a
0d49   0d1e
0d4a   0043   dw "C" ,"J", set_cmem, kpst30; 
0d4b   004a
0d4c   0558
0d4d   0d1e
0d4e   0052   dw "R" ,"J", set_rmem, kpst30; 
0d4f   004a
0d50   0566
0d51   0d1e
0d52   0076   dw "v" ,"J", set_varchk, kpst30; 
0d53   004a
0d54   052e
0d55   0d1e
0d56   0068   dw "h" ,"J" ,d_helps, kpst30; 
0d57   004a
0d58   0177
0d59   0d1e
0d5a   0078   dw "x" ,"J", d_menu, kpst00; 
0d5b   004a
0d5c   013b
0d5d   0c8a
0d5e   0000   dw NULL,"J", d_sysset, kpst30; 
0d5f   004a
0d60   0147
0d61   0d1e
0d62   0077   kpst40: dw "w" ,"J", d_walking, kpst40; 
0d63   004a
0d64   009e
0d65   0d62
0d66   0073   dw "s" ,"J", d_switch, kpst40; 
0d67   004a
0d68   00b2
0d69   0d62
0d6a   004c   dw "L" ,"J", d_setled, kpst40; 
0d6b   004a
0d6c   00c1
0d6d   0d62
0d6e   0070   dw "p" ,"J", prn_xadc, kpst40; 
0d6f   004a
0d70   08ee
0d71   0d62
0d72   0064   dw "d" ,"J", d_xadc, kpst40; 
0d73   004a
0d74   0090
0d75   0d62
0d76   0072   dw "r" ,"J", d_io_aregs, kpst40; 
0d77   004a
0d78   01d0
0d79   0d62
0d7a   0048   dw "H" ,"J", d_rtcval, kpst40; 
0d7b   004a
0d7c   0116
0d7d   0d62
0d7e   004d   dw "M" ,"J", d_rtcmode, kpst40; 
0d7f   004a
0d80   0113
0d81   0d62
0d82   0068   dw "h" ,"J", d_helpa, kpst40; 
0d83   004a
0d84   016d
0d85   0d62
0d86   0078   dw "x" ,"J", d_menu, kpst00; 
0d87   004a
0d88   013b
0d89   0c8a
0d8a   0000   dw NULL,"J", d_appset, kpst40; 
0d8b   004a
0d8c   0141
0d8d   0d62
0d8e   000d   wpst00: dw CR ,"R" , a_quit, kpst00; 
0d8f   0052
0d90   0352
0d91   0c8a
0d92   0071   dw "q" ,"R" , a_quit, kpst00; 
0d93   0052
0d94   0352
0d95   0c8a
0d96   0000   dw NULL ,"J" , a_regdat, wpst00; 
0d97   004a
0d98   02a0
0d99   0d8e
0d9a   002c   wpst01: dw "," ,"J" , a_setadd, wpst02; 
0d9b   004a
0d9c   0286
0d9d   0db6
0d9e   0020   dw " " ,"J" , a_setadd, wpst02; 
0d9f   004a
0da0   0286
0da1   0db6
0da2   002d   dw "-" ,"J" , a_setadd, wpst03; 
0da3   004a
0da4   0286
0da5   0dc2
0da6   006e   dw "n" ,"J" , a_setadd, wpst03; 
0da7   004a
0da8   0286
0da9   0dc2
0daa   000d   dw CR ,"R" , a_getval, kpst00; 
0dab   0052
0dac   0262
0dad   0c8a
0dae   0071   dw "q" ,"R" , a_quit, kpst00; 
0daf   0052
0db0   0352
0db1   0c8a
0db2   0000   dw NULL ,"J" , a_getadr, wpst01; 
0db3   004a
0db4   024f
0db5   0d9a
0db6   000d   wpst02: dw CR ,"R" , a_wrval1, kpst00; 
0db7   0052
0db8   02a3
0db9   0c8a
0dba   0071   dw "q" ,"R" , a_quit, kpst00; 
0dbb   0052
0dbc   0352
0dbd   0c8a
0dbe   0000   dw NULL ,"J" , a_regdat, wpst02; 
0dbf   004a
0dc0   02a0
0dc1   0db6
0dc2   000d   wpst03: dw CR ,"R" , a_wrval2, kpst00; 
0dc3   0052
0dc4   02a8
0dc5   0c8a
0dc6   0071   dw "q" ,"R" , a_quit, kpst00; 
0dc7   0052
0dc8   0352
0dc9   0c8a
0dca   0000   dw NULL ,"J" , a_regdat, wpst03; 
0dcb   004a
0dcc   02a0
0dcd   0dc2
0dce   007c   menu: dt "|MasterControl : Main Menu|";
0dcf   004d
0dd0   0061
0dd1   0073
0dd2   0074
0dd3   0065
0dd4   0072
0dd5   0043
0dd6   006f
0dd7   006e
0dd8   0074
0dd9   0072
0dda   006f
0ddb   006c
0ddc   0020
0ddd   003a
0dde   0020
0ddf   004d
0de0   0061
0de1   0069
0de2   006e
0de3   0020
0de4   004d
0de5   0065
0de6   006e
0de7   0075
0de8   007c
0de9   0000
0dea   0020   dt " a = Applications";
0deb   0061
0dec   0020
0ded   003d
0dee   0020
0def   0041
0df0   0070
0df1   0070
0df2   006c
0df3   0069
0df4   0063
0df5   0061
0df6   0074
0df7   0069
0df8   006f
0df9   006e
0dfa   0073
0dfb   0000
0dfc   0020   dt " d = monitor/Debug";
0dfd   0064
0dfe   0020
0dff   003d
0e00   0020
0e01   006d
0e02   006f
0e03   006e
0e04   0069
0e05   0074
0e06   006f
0e07   0072
0e08   002f
0e09   0044
0e0a   0065
0e0b   0062
0e0c   0075
0e0d   0067
0e0e   0000
0e0f   0020   dt " s = System setup";
0e10   0073
0e11   0020
0e12   003d
0e13   0020
0e14   0053
0e15   0079
0e16   0073
0e17   0074
0e18   0065
0e19   006d
0e1a   0020
0e1b   0073
0e1c   0065
0e1d   0074
0e1e   0075
0e1f   0070
0e20   0000
0e21   0020   dt " b = Main board layout";
0e22   0062
0e23   0020
0e24   003d
0e25   0020
0e26   004d
0e27   0061
0e28   0069
0e29   006e
0e2a   0020
0e2b   0062
0e2c   006f
0e2d   0061
0e2e   0072
0e2f   0064
0e30   0020
0e31   006c
0e32   0061
0e33   0079
0e34   006f
0e35   0075
0e36   0074
0e37   0000
0e38   0020   dt " h = I/O board layout";
0e39   0068
0e3a   0020
0e3b   003d
0e3c   0020
0e3d   0049
0e3e   002f
0e3f   004f
0e40   0020
0e41   0062
0e42   006f
0e43   0061
0e44   0072
0e45   0064
0e46   0020
0e47   006c
0e48   0061
0e49   0079
0e4a   006f
0e4b   0075
0e4c   0074
0e4d   0000
0e4e   0020   dt " v = Version";
0e4f   0076
0e50   0020
0e51   003d
0e52   0020
0e53   0056
0e54   0065
0e55   0072
0e56   0073
0e57   0069
0e58   006f
0e59   006e
0e5a   0000
0e5b   007c   dt "|||";
0e5c   007c
0e5d   007c
0e5e   0000
0e5f   0003   dw ETX;
0e60   001b   debugq_m:dw ESC;
0e61   005b   dt "[91m"; 
0e62   0039
0e63   0031
0e64   006d
0e65   0000
0e66   007c   dt "|Debug Menu|";
0e67   0044
0e68   0065
0e69   0062
0e6a   0075
0e6b   0067
0e6c   0020
0e6d   004d
0e6e   0065
0e6f   006e
0e70   0075
0e71   007c
0e72   0000
0e73   0020   dt " This is for debugging only, experience with the tools is needed|";
0e74   0054
0e75   0068
0e76   0069
0e77   0073
0e78   0020
0e79   0069
0e7a   0073
0e7b   0020
0e7c   0066
0e7d   006f
0e7e   0072
0e7f   0020
0e80   0064
0e81   0065
0e82   0062
0e83   0075
0e84   0067
0e85   0067
0e86   0069
0e87   006e
0e88   0067
0e89   0020
0e8a   006f
0e8b   006e
0e8c   006c
0e8d   0079
0e8e   002c
0e8f   0020
0e90   0065
0e91   0078
0e92   0070
0e93   0065
0e94   0072
0e95   0069
0e96   0065
0e97   006e
0e98   0063
0e99   0065
0e9a   0020
0e9b   0077
0e9c   0069
0e9d   0074
0e9e   0068
0e9f   0020
0ea0   0074
0ea1   0068
0ea2   0065
0ea3   0020
0ea4   0074
0ea5   006f
0ea6   006f
0ea7   006c
0ea8   0073
0ea9   0020
0eaa   0069
0eab   0073
0eac   0020
0ead   006e
0eae   0065
0eaf   0065
0eb0   0064
0eb1   0065
0eb2   0064
0eb3   007c
0eb4   0000
0eb5   0020   dt " Any memory or internal register writing can cause problems_____|";
0eb6   0041
0eb7   006e
0eb8   0079
0eb9   0020
0eba   006d
0ebb   0065
0ebc   006d
0ebd   006f
0ebe   0072
0ebf   0079
0ec0   0020
0ec1   006f
0ec2   0072
0ec3   0020
0ec4   0069
0ec5   006e
0ec6   0074
0ec7   0065
0ec8   0072
0ec9   006e
0eca   0061
0ecb   006c
0ecc   0020
0ecd   0072
0ece   0065
0ecf   0067
0ed0   0069
0ed1   0073
0ed2   0074
0ed3   0065
0ed4   0072
0ed5   0020
0ed6   0077
0ed7   0072
0ed8   0069
0ed9   0074
0eda   0069
0edb   006e
0edc   0067
0edd   0020
0ede   0063
0edf   0061
0ee0   006e
0ee1   0020
0ee2   0063
0ee3   0061
0ee4   0075
0ee5   0073
0ee6   0065
0ee7   0020
0ee8   0070
0ee9   0072
0eea   006f
0eeb   0062
0eec   006c
0eed   0065
0eee   006d
0eef   0073
0ef0   005f
0ef1   005f
0ef2   005f
0ef3   005f
0ef4   005f
0ef5   007c
0ef6   0000
0ef7   0020   dt " and the system must be reseted using HW reset push button._____|";
0ef8   0061
0ef9   006e
0efa   0064
0efb   0020
0efc   0074
0efd   0068
0efe   0065
0eff   0020
0f00   0073
0f01   0079
0f02   0073
0f03   0074
0f04   0065
0f05   006d
0f06   0020
0f07   006d
0f08   0075
0f09   0073
0f0a   0074
0f0b   0020
0f0c   0062
0f0d   0065
0f0e   0020
0f0f   0072
0f10   0065
0f11   0073
0f12   0065
0f13   0074
0f14   0065
0f15   0064
0f16   0020
0f17   0075
0f18   0073
0f19   0069
0f1a   006e
0f1b   0067
0f1c   0020
0f1d   0048
0f1e   0057
0f1f   0020
0f20   0072
0f21   0065
0f22   0073
0f23   0065
0f24   0074
0f25   0020
0f26   0070
0f27   0075
0f28   0073
0f29   0068
0f2a   0020
0f2b   0062
0f2c   0075
0f2d   0074
0f2e   0074
0f2f   006f
0f30   006e
0f31   002e
0f32   005f
0f33   005f
0f34   005f
0f35   005f
0f36   005f
0f37   007c
0f38   0000
0f39   0020   dt " If you want to continue press :________________________________|";
0f3a   0049
0f3b   0066
0f3c   0020
0f3d   0079
0f3e   006f
0f3f   0075
0f40   0020
0f41   0077
0f42   0061
0f43   006e
0f44   0074
0f45   0020
0f46   0074
0f47   006f
0f48   0020
0f49   0063
0f4a   006f
0f4b   006e
0f4c   0074
0f4d   0069
0f4e   006e
0f4f   0075
0f50   0065
0f51   0020
0f52   0070
0f53   0072
0f54   0065
0f55   0073
0f56   0073
0f57   0020
0f58   003a
0f59   005f
0f5a   005f
0f5b   005f
0f5c   005f
0f5d   005f
0f5e   005f
0f5f   005f
0f60   005f
0f61   005f
0f62   005f
0f63   005f
0f64   005f
0f65   005f
0f66   005f
0f67   005f
0f68   005f
0f69   005f
0f6a   005f
0f6b   005f
0f6c   005f
0f6d   005f
0f6e   005f
0f6f   005f
0f70   005f
0f71   005f
0f72   005f
0f73   005f
0f74   005f
0f75   005f
0f76   005f
0f77   005f
0f78   005f
0f79   007c
0f7a   0000
0f7b   001b   dw ESC;
0f7c   005b   dt "[93;4m"; 
0f7d   0039
0f7e   0033
0f7f   003b
0f80   0034
0f81   006d
0f82   0000
0f83   0020   dt " Y ";
0f84   0059
0f85   0020
0f86   0000
0f87   001b   dw ESC;
0f88   005b   dt "[91;24m"; 
0f89   0039
0f8a   0031
0f8b   003b
0f8c   0032
0f8d   0034
0f8e   006d
0f8f   0000
0f90   0020   dt " any other key returns to main__________________________________|";
0f91   0061
0f92   006e
0f93   0079
0f94   0020
0f95   006f
0f96   0074
0f97   0068
0f98   0065
0f99   0072
0f9a   0020
0f9b   006b
0f9c   0065
0f9d   0079
0f9e   0020
0f9f   0072
0fa0   0065
0fa1   0074
0fa2   0075
0fa3   0072
0fa4   006e
0fa5   0073
0fa6   0020
0fa7   0074
0fa8   006f
0fa9   0020
0faa   006d
0fab   0061
0fac   0069
0fad   006e
0fae   005f
0faf   005f
0fb0   005f
0fb1   005f
0fb2   005f
0fb3   005f
0fb4   005f
0fb5   005f
0fb6   005f
0fb7   005f
0fb8   005f
0fb9   005f
0fba   005f
0fbb   005f
0fbc   005f
0fbd   005f
0fbe   005f
0fbf   005f
0fc0   005f
0fc1   005f
0fc2   005f
0fc3   005f
0fc4   005f
0fc5   005f
0fc6   005f
0fc7   005f
0fc8   005f
0fc9   005f
0fca   005f
0fcb   005f
0fcc   005f
0fcd   005f
0fce   005f
0fcf   005f
0fd0   007c
0fd1   0000
0fd2   007c   dt "||||";
0fd3   007c
0fd4   007c
0fd5   007c
0fd6   0000
0fd7   0003   dw ETX;
0fd8   007c   debug_m: dt "|Debug Menu|";
0fd9   0044
0fda   0065
0fdb   0062
0fdc   0075
0fdd   0067
0fde   0020
0fdf   004d
0fe0   0065
0fe1   006e
0fe2   0075
0fe3   007c
0fe4   0000
0fe5   0020   dt " A = memory Access mode";
0fe6   0041
0fe7   0020
0fe8   003d
0fe9   0020
0fea   006d
0feb   0065
0fec   006d
0fed   006f
0fee   0072
0fef   0079
0ff0   0020
0ff1   0041
0ff2   0063
0ff3   0063
0ff4   0065
0ff5   0073
0ff6   0073
0ff7   0020
0ff8   006d
0ff9   006f
0ffa   0064
0ffb   0065
0ffc   0000
0ffd   0020   dt " B = memory Byte mode";
0ffe   0042
0fff   0020
1000   003d
1001   0020
1002   006d
1003   0065
1004   006d
1005   006f
1006   0072
1007   0079
1008   0020
1009   0042
100a   0079
100b   0074
100c   0065
100d   0020
100e   006d
100f   006f
1010   0064
1011   0065
1012   0000
1013   0020   dt " P = external memory Page";
1014   0050
1015   0020
1016   003d
1017   0020
1018   0065
1019   0078
101a   0074
101b   0065
101c   0072
101d   006e
101e   0061
101f   006c
1020   0020
1021   006d
1022   0065
1023   006d
1024   006f
1025   0072
1026   0079
1027   0020
1028   0050
1029   0061
102a   0067
102b   0065
102c   0000
102d   0020   dt " m = Memory write/read";
102e   006d
102f   0020
1030   003d
1031   0020
1032   004d
1033   0065
1034   006d
1035   006f
1036   0072
1037   0079
1038   0020
1039   0077
103a   0072
103b   0069
103c   0074
103d   0065
103e   002f
103f   0072
1040   0065
1041   0061
1042   0064
1043   0000
1044   0020   dt " d = Memory dump";
1045   0064
1046   0020
1047   003d
1048   0020
1049   004d
104a   0065
104b   006d
104c   006f
104d   0072
104e   0079
104f   0020
1050   0064
1051   0075
1052   006d
1053   0070
1054   0000
1055   0020   dt " n = Next dump";
1056   006e
1057   0020
1058   003d
1059   0020
105a   004e
105b   0065
105c   0078
105d   0074
105e   0020
105f   0064
1060   0075
1061   006d
1062   0070
1063   0000
1064   0020   dt " f = fill memory";
1065   0066
1066   0020
1067   003d
1068   0020
1069   0066
106a   0069
106b   006c
106c   006c
106d   0020
106e   006d
106f   0065
1070   006d
1071   006f
1072   0072
1073   0079
1074   0000
1075   0020   dt " l = set length/increment";
1076   006c
1077   0020
1078   003d
1079   0020
107a   0073
107b   0065
107c   0074
107d   0020
107e   006c
107f   0065
1080   006e
1081   0067
1082   0074
1083   0068
1084   002f
1085   0069
1086   006e
1087   0063
1088   0072
1089   0065
108a   006d
108b   0065
108c   006e
108d   0074
108e   0000
108f   0000   dt "";
1090   0020   dt " w = Write/read register";
1091   0077
1092   0020
1093   003d
1094   0020
1095   0057
1096   0072
1097   0069
1098   0074
1099   0065
109a   002f
109b   0072
109c   0065
109d   0061
109e   0064
109f   0020
10a0   0072
10a1   0065
10a2   0067
10a3   0069
10a4   0073
10a5   0074
10a6   0065
10a7   0072
10a8   0000
10a9   0020   dt " s = Set reg bit";
10aa   0073
10ab   0020
10ac   003d
10ad   0020
10ae   0053
10af   0065
10b0   0074
10b1   0020
10b2   0072
10b3   0065
10b4   0067
10b5   0020
10b6   0062
10b7   0069
10b8   0074
10b9   0000
10ba   0020   dt " c = Clear reg bit";
10bb   0063
10bc   0020
10bd   003d
10be   0020
10bf   0043
10c0   006c
10c1   0065
10c2   0061
10c3   0072
10c4   0020
10c5   0072
10c6   0065
10c7   0067
10c8   0020
10c9   0062
10ca   0069
10cb   0074
10cc   0000
10cd   0020   dt " t = Toggle reg bit";
10ce   0074
10cf   0020
10d0   003d
10d1   0020
10d2   0054
10d3   006f
10d4   0067
10d5   0067
10d6   006c
10d7   0065
10d8   0020
10d9   0072
10da   0065
10db   0067
10dc   0020
10dd   0062
10de   0069
10df   0074
10e0   0000
10e1   0020   dt " i = Pulse reg bit";
10e2   0069
10e3   0020
10e4   003d
10e5   0020
10e6   0050
10e7   0075
10e8   006c
10e9   0073
10ea   0065
10eb   0020
10ec   0072
10ed   0065
10ee   0067
10ef   0020
10f0   0062
10f1   0069
10f2   0074
10f3   0000
10f4   0020   dt " a = and";
10f5   0061
10f6   0020
10f7   003d
10f8   0020
10f9   0061
10fa   006e
10fb   0064
10fc   0000
10fd   0020   dt " o = or";
10fe   006f
10ff   0020
1100   003d
1101   0020
1102   006f
1103   0072
1104   0000
1105   0020   dt " e = xor";
1106   0065
1107   0020
1108   003d
1109   0020
110a   0078
110b   006f
110c   0072
110d   0000
110e   0000   dt "";
110f   0020   dt " b = set Base Registers address";
1110   0062
1111   0020
1112   003d
1113   0020
1114   0073
1115   0065
1116   0074
1117   0020
1118   0042
1119   0061
111a   0073
111b   0065
111c   0020
111d   0052
111e   0065
111f   0067
1120   0069
1121   0073
1122   0074
1123   0065
1124   0072
1125   0073
1126   0020
1127   0061
1128   0064
1129   0064
112a   0072
112b   0065
112c   0073
112d   0073
112e   0000
112f   0020   dt " r = Read regs";
1130   0072
1131   0020
1132   003d
1133   0020
1134   0052
1135   0065
1136   0061
1137   0064
1138   0020
1139   0072
113a   0065
113b   0067
113c   0073
113d   0000
113e   0020   dt " R = Read I/O regs(0100-013F)";
113f   0052
1140   0020
1141   003d
1142   0020
1143   0052
1144   0065
1145   0061
1146   0064
1147   0020
1148   0049
1149   002f
114a   004f
114b   0020
114c   0072
114d   0065
114e   0067
114f   0073
1150   0028
1151   0030
1152   0031
1153   0030
1154   0030
1155   002d
1156   0030
1157   0031
1158   0033
1159   0046
115a   0029
115b   0000
115c   0000   dt "";
115d   0020   dt " v = Display variables";
115e   0076
115f   0020
1160   003d
1161   0020
1162   0044
1163   0069
1164   0073
1165   0070
1166   006c
1167   0061
1168   0079
1169   0020
116a   0076
116b   0061
116c   0072
116d   0069
116e   0061
116f   0062
1170   006c
1171   0065
1172   0073
1173   0000
1174   0020   dt " I = IRQ mask";
1175   0049
1176   0020
1177   003d
1178   0020
1179   0049
117a   0052
117b   0051
117c   0020
117d   006d
117e   0061
117f   0073
1180   006b
1181   0000
1182   007c   dt "||||";
1183   007c
1184   007c
1185   007c
1186   0000
1187   001b   dw ESC;
1188   005b   dt "[91m"; 
1189   0039
118a   0031
118b   006d
118c   0000
118d   0054   dt "To download a .mem file set W=0";
118e   006f
118f   0020
1190   0064
1191   006f
1192   0077
1193   006e
1194   006c
1195   006f
1196   0061
1197   0064
1198   0020
1199   0061
119a   0020
119b   002e
119c   006d
119d   0065
119e   006d
119f   0020
11a0   0066
11a1   0069
11a2   006c
11a3   0065
11a4   0020
11a5   0073
11a6   0065
11a7   0074
11a8   0020
11a9   0057
11aa   003d
11ab   0030
11ac   0000
11ad   0020   dt " W = Protect 2, Unprotect 0";
11ae   0057
11af   0020
11b0   003d
11b1   0020
11b2   0050
11b3   0072
11b4   006f
11b5   0074
11b6   0065
11b7   0063
11b8   0074
11b9   0020
11ba   0032
11bb   002c
11bc   0020
11bd   0055
11be   006e
11bf   0070
11c0   0072
11c1   006f
11c2   0074
11c3   0065
11c4   0063
11c5   0074
11c6   0020
11c7   0030
11c8   0000
11c9   0020   dt " L = Load Program *.mem";
11ca   004c
11cb   0020
11cc   003d
11cd   0020
11ce   004c
11cf   006f
11d0   0061
11d1   0064
11d2   0020
11d3   0050
11d4   0072
11d5   006f
11d6   0067
11d7   0072
11d8   0061
11d9   006d
11da   0020
11db   002a
11dc   002e
11dd   006d
11de   0065
11df   006d
11e0   0000
11e1   001b   dw ESC;
11e2   005b   dt "[97m"; 
11e3   0039
11e4   0037
11e5   006d
11e6   0000
11e7   0000   dt "";
11e8   007c   dt "||||";
11e9   007c
11ea   007c
11eb   007c
11ec   0000
11ed   0020   dt " h = HELP";
11ee   0068
11ef   0020
11f0   003d
11f1   0020
11f2   0048
11f3   0045
11f4   004c
11f5   0050
11f6   0000
11f7   0020   dt " x = exit";
11f8   0078
11f9   0020
11fa   003d
11fb   0020
11fc   0065
11fd   0078
11fe   0069
11ff   0074
1200   0000
1201   007c   dt "||||";
1202   007c
1203   007c
1204   007c
1205   0000
1206   0003   dw ETX;
1207   007c   sysset_m:dt "|System Setup|";
1208   0053
1209   0079
120a   0073
120b   0074
120c   0065
120d   006d
120e   0020
120f   0053
1210   0065
1211   0074
1212   0075
1213   0070
1214   007c
1215   0000
1216   0020   dt " Set Real Time Clock";
1217   0053
1218   0065
1219   0074
121a   0020
121b   0052
121c   0065
121d   0061
121e   006c
121f   0020
1220   0054
1221   0069
1222   006d
1223   0065
1224   0020
1225   0043
1226   006c
1227   006f
1228   0063
1229   006b
122a   0000
122b   0020   dt " Y = Year";
122c   0059
122d   0020
122e   003d
122f   0020
1230   0059
1231   0065
1232   0061
1233   0072
1234   0000
1235   0020   dt " M = Month";
1236   004d
1237   0020
1238   003d
1239   0020
123a   004d
123b   006f
123c   006e
123d   0074
123e   0068
123f   0000
1240   0020   dt " D = day/DATE";
1241   0044
1242   0020
1243   003d
1244   0020
1245   0064
1246   0061
1247   0079
1248   002f
1249   0044
124a   0041
124b   0054
124c   0045
124d   0000
124e   0020   dt " H = Hour , 24 hours format";
124f   0048
1250   0020
1251   003d
1252   0020
1253   0048
1254   006f
1255   0075
1256   0072
1257   0020
1258   002c
1259   0020
125a   0032
125b   0034
125c   0020
125d   0068
125e   006f
125f   0075
1260   0072
1261   0073
1262   0020
1263   0066
1264   006f
1265   0072
1266   006d
1267   0061
1268   0074
1269   0000
126a   0020   dt " U = minUte";
126b   0055
126c   0020
126d   003d
126e   0020
126f   006d
1270   0069
1271   006e
1272   0055
1273   0074
1274   0065
1275   0000
1276   0020   dt " S = Sec";
1277   0053
1278   0020
1279   003d
127a   0020
127b   0053
127c   0065
127d   0063
127e   0000
127f   0000   dt "";
1280   0020   dt " k = display master clocK ";
1281   006b
1282   0020
1283   003d
1284   0020
1285   0064
1286   0069
1287   0073
1288   0070
1289   006c
128a   0061
128b   0079
128c   0020
128d   006d
128e   0061
128f   0073
1290   0074
1291   0065
1292   0072
1293   0020
1294   0063
1295   006c
1296   006f
1297   0063
1298   004b
1299   0020
129a   0000
129b   0000   dt "";
129c   0020   dt " L = leap year check";
129d   004c
129e   0020
129f   003d
12a0   0020
12a1   006c
12a2   0065
12a3   0061
12a4   0070
12a5   0020
12a6   0079
12a7   0065
12a8   0061
12a9   0072
12aa   0020
12ab   0063
12ac   0068
12ad   0065
12ae   0063
12af   006b
12b0   0000
12b1   005f   dt "___enter year in Decimal [RET]";
12b2   005f
12b3   005f
12b4   0065
12b5   006e
12b6   0074
12b7   0065
12b8   0072
12b9   0020
12ba   0079
12bb   0065
12bc   0061
12bd   0072
12be   0020
12bf   0069
12c0   006e
12c1   0020
12c2   0044
12c3   0065
12c4   0063
12c5   0069
12c6   006d
12c7   0061
12c8   006c
12c9   0020
12ca   005b
12cb   0052
12cc   0045
12cd   0054
12ce   005d
12cf   0000
12d0   005f   dt "___prints yes/no on xTerm";
12d1   005f
12d2   005f
12d3   0070
12d4   0072
12d5   0069
12d6   006e
12d7   0074
12d8   0073
12d9   0020
12da   0079
12db   0065
12dc   0073
12dd   002f
12de   006e
12df   006f
12e0   0020
12e1   006f
12e2   006e
12e3   0020
12e4   0078
12e5   0054
12e6   0065
12e7   0072
12e8   006d
12e9   0000
12ea   007c   dt "|";
12eb   0000
12ec   0020   dt " Set row and column register display";
12ed   0053
12ee   0065
12ef   0074
12f0   0020
12f1   0072
12f2   006f
12f3   0077
12f4   0020
12f5   0061
12f6   006e
12f7   0064
12f8   0020
12f9   0063
12fa   006f
12fb   006c
12fc   0075
12fd   006d
12fe   006e
12ff   0020
1300   0072
1301   0065
1302   0067
1303   0069
1304   0073
1305   0074
1306   0065
1307   0072
1308   0020
1309   0064
130a   0069
130b   0073
130c   0070
130d   006c
130e   0061
130f   0079
1310   0000
1311   0020   dt " c = set reg columns";
1312   0063
1313   0020
1314   003d
1315   0020
1316   0073
1317   0065
1318   0074
1319   0020
131a   0072
131b   0065
131c   0067
131d   0020
131e   0063
131f   006f
1320   006c
1321   0075
1322   006d
1323   006e
1324   0073
1325   0000
1326   0020   dt " r = set reg rows___";
1327   0072
1328   0020
1329   003d
132a   0020
132b   0073
132c   0065
132d   0074
132e   0020
132f   0072
1330   0065
1331   0067
1332   0020
1333   0072
1334   006f
1335   0077
1336   0073
1337   005f
1338   005f
1339   005f
133a   0000
133b   0020   dt " C = set mem columns";
133c   0043
133d   0020
133e   003d
133f   0020
1340   0073
1341   0065
1342   0074
1343   0020
1344   006d
1345   0065
1346   006d
1347   0020
1348   0063
1349   006f
134a   006c
134b   0075
134c   006d
134d   006e
134e   0073
134f   0000
1350   0020   dt " R = set mem rows___";
1351   0052
1352   0020
1353   003d
1354   0020
1355   0073
1356   0065
1357   0074
1358   0020
1359   006d
135a   0065
135b   006d
135c   0020
135d   0072
135e   006f
135f   0077
1360   0073
1361   005f
1362   005f
1363   005f
1364   0000
1365   007c   dt "|";
1366   0000
1367   0020   dt " Set row variables display";
1368   0053
1369   0065
136a   0074
136b   0020
136c   0072
136d   006f
136e   0077
136f   0020
1370   0076
1371   0061
1372   0072
1373   0069
1374   0061
1375   0062
1376   006c
1377   0065
1378   0073
1379   0020
137a   0064
137b   0069
137c   0073
137d   0070
137e   006c
137f   0061
1380   0079
1381   0000
1382   0020   dt " v = set var rows";
1383   0076
1384   0020
1385   003d
1386   0020
1387   0073
1388   0065
1389   0074
138a   0020
138b   0076
138c   0061
138d   0072
138e   0020
138f   0072
1390   006f
1391   0077
1392   0073
1393   0000
1394   007c   dt "|";
1395   0000
1396   0020   dt " t = toggle Reset bit0 Reg7";
1397   0074
1398   0020
1399   003d
139a   0020
139b   0074
139c   006f
139d   0067
139e   0067
139f   006c
13a0   0065
13a1   0020
13a2   0052
13a3   0065
13a4   0073
13a5   0065
13a6   0074
13a7   0020
13a8   0062
13a9   0069
13aa   0074
13ab   0030
13ac   0020
13ad   0052
13ae   0065
13af   0067
13b0   0037
13b1   0000
13b2   007c   dt "|";
13b3   0000
13b4   0020   dt " h = HELP";
13b5   0068
13b6   0020
13b7   003d
13b8   0020
13b9   0048
13ba   0045
13bb   004c
13bc   0050
13bd   0000
13be   0020   dt " x = exit";
13bf   0078
13c0   0020
13c1   003d
13c2   0020
13c3   0065
13c4   0078
13c5   0069
13c6   0074
13c7   0000
13c8   007c   dt "|||";
13c9   007c
13ca   007c
13cb   0000
13cc   0003   dw ETX;
13cd   007c   appset_m:dt "|Application|";
13ce   0041
13cf   0070
13d0   0070
13d1   006c
13d2   0069
13d3   0063
13d4   0061
13d5   0074
13d6   0069
13d7   006f
13d8   006e
13d9   007c
13da   0000
13db   0000   dt "";
13dc   0020   dt " | Tests";
13dd   007c
13de   0020
13df   0054
13e0   0065
13e1   0073
13e2   0074
13e3   0073
13e4   0000
13e5   0020   dt " w = walking pattern";
13e6   0077
13e7   0020
13e8   003d
13e9   0020
13ea   0077
13eb   0061
13ec   006c
13ed   006b
13ee   0069
13ef   006e
13f0   0067
13f1   0020
13f2   0070
13f3   0061
13f4   0074
13f5   0074
13f6   0065
13f7   0072
13f8   006e
13f9   0000
13fa   0020   dt " s = SW to LEDs";
13fb   0073
13fc   0020
13fd   003d
13fe   0020
13ff   0053
1400   0057
1401   0020
1402   0074
1403   006f
1404   0020
1405   004c
1406   0045
1407   0044
1408   0073
1409   0000
140a   0020   dt " L = write to LEDs";
140b   004c
140c   0020
140d   003d
140e   0020
140f   0077
1410   0072
1411   0069
1412   0074
1413   0065
1414   0020
1415   0074
1416   006f
1417   0020
1418   004c
1419   0045
141a   0044
141b   0073
141c   0000
141d   0000   dt "";
141e   0020   dt " | Print in Hex XADC";
141f   007c
1420   0020
1421   0050
1422   0072
1423   0069
1424   006e
1425   0074
1426   0020
1427   0069
1428   006e
1429   0020
142a   0048
142b   0065
142c   0078
142d   0020
142e   0058
142f   0041
1430   0044
1431   0043
1432   0000
1433   0020   dt " p = temp, vccint, vccaux, vp/vn";
1434   0070
1435   0020
1436   003d
1437   0020
1438   0074
1439   0065
143a   006d
143b   0070
143c   002c
143d   0020
143e   0076
143f   0063
1440   0063
1441   0069
1442   006e
1443   0074
1444   002c
1445   0020
1446   0076
1447   0063
1448   0063
1449   0061
144a   0075
144b   0078
144c   002c
144d   0020
144e   0076
144f   0070
1450   002f
1451   0076
1452   006e
1453   0000
1454   0000   dt "";
1455   0020   dt " | Display XADC";
1456   007c
1457   0020
1458   0044
1459   0069
145a   0073
145b   0070
145c   006c
145d   0061
145e   0079
145f   0020
1460   0058
1461   0041
1462   0044
1463   0043
1464   0000
1465   0020   dt " d = 0(*C) 1(*F), 2(vccint), 3(vccaux), 4(vp/vn)";
1466   0064
1467   0020
1468   003d
1469   0020
146a   0030
146b   0028
146c   002a
146d   0043
146e   0029
146f   0020
1470   0031
1471   0028
1472   002a
1473   0046
1474   0029
1475   002c
1476   0020
1477   0032
1478   0028
1479   0076
147a   0063
147b   0063
147c   0069
147d   006e
147e   0074
147f   0029
1480   002c
1481   0020
1482   0033
1483   0028
1484   0076
1485   0063
1486   0063
1487   0061
1488   0075
1489   0078
148a   0029
148b   002c
148c   0020
148d   0034
148e   0028
148f   0076
1490   0070
1491   002f
1492   0076
1493   006e
1494   0029
1495   0000
1496   0000   dt "";
1497   0020   dt " | Display Output/Input registers";
1498   007c
1499   0020
149a   0044
149b   0069
149c   0073
149d   0070
149e   006c
149f   0061
14a0   0079
14a1   0020
14a2   004f
14a3   0075
14a4   0074
14a5   0070
14a6   0075
14a7   0074
14a8   002f
14a9   0049
14aa   006e
14ab   0070
14ac   0075
14ad   0074
14ae   0020
14af   0072
14b0   0065
14b1   0067
14b2   0069
14b3   0073
14b4   0074
14b5   0065
14b6   0072
14b7   0073
14b8   0000
14b9   0020   dt " |__LEDs/Swithces-Pbushbuttons ";
14ba   007c
14bb   005f
14bc   005f
14bd   004c
14be   0045
14bf   0044
14c0   0073
14c1   002f
14c2   0053
14c3   0077
14c4   0069
14c5   0074
14c6   0068
14c7   0063
14c8   0065
14c9   0073
14ca   002d
14cb   0050
14cc   0062
14cd   0075
14ce   0073
14cf   0068
14d0   0062
14d1   0075
14d2   0074
14d3   0074
14d4   006f
14d5   006e
14d6   0073
14d7   0020
14d8   0000
14d9   0020   dt " r = Read 16 registers";
14da   0072
14db   0020
14dc   003d
14dd   0020
14de   0052
14df   0065
14e0   0061
14e1   0064
14e2   0020
14e3   0031
14e4   0036
14e5   0020
14e6   0072
14e7   0065
14e8   0067
14e9   0069
14ea   0073
14eb   0074
14ec   0065
14ed   0072
14ee   0073
14ef   0000
14f0   0000   dt "";
14f1   0020   dt " |";
14f2   007c
14f3   0000
14f4   0020   dt " H = Display Hours:Minutes";
14f5   0048
14f6   0020
14f7   003d
14f8   0020
14f9   0044
14fa   0069
14fb   0073
14fc   0070
14fd   006c
14fe   0061
14ff   0079
1500   0020
1501   0048
1502   006f
1503   0075
1504   0072
1505   0073
1506   003a
1507   004d
1508   0069
1509   006e
150a   0075
150b   0074
150c   0065
150d   0073
150e   0000
150f   0020   dt " M = Display Minutes:Seconds";
1510   004d
1511   0020
1512   003d
1513   0020
1514   0044
1515   0069
1516   0073
1517   0070
1518   006c
1519   0061
151a   0079
151b   0020
151c   004d
151d   0069
151e   006e
151f   0075
1520   0074
1521   0065
1522   0073
1523   003a
1524   0053
1525   0065
1526   0063
1527   006f
1528   006e
1529   0064
152a   0073
152b   0000
152c   0000   dt "";
152d   0020   dt " |";
152e   007c
152f   0000
1530   0020   dt " h = HELP";
1531   0068
1532   0020
1533   003d
1534   0020
1535   0048
1536   0045
1537   004c
1538   0050
1539   0000
153a   0020   dt " x = Exit";
153b   0078
153c   0020
153d   003d
153e   0020
153f   0045
1540   0078
1541   0069
1542   0074
1543   0000
1544   007c   dt "|||";
1545   007c
1546   007c
1547   0000
1548   0003   dw ETX;
1549   007c   help_m: dt "||| Main Board Layout |||";
154a   007c
154b   007c
154c   0020
154d   004d
154e   0061
154f   0069
1550   006e
1551   0020
1552   0042
1553   006f
1554   0061
1555   0072
1556   0064
1557   0020
1558   004c
1559   0061
155a   0079
155b   006f
155c   0075
155d   0074
155e   0020
155f   007c
1560   007c
1561   007c
1562   0000
1563   0020   dt " Alchitry Au with I/O board";
1564   0041
1565   006c
1566   0063
1567   0068
1568   0069
1569   0074
156a   0072
156b   0079
156c   0020
156d   0041
156e   0075
156f   0020
1570   0077
1571   0069
1572   0074
1573   0068
1574   0020
1575   0049
1576   002f
1577   004f
1578   0020
1579   0062
157a   006f
157b   0061
157c   0072
157d   0064
157e   0000
157f   0020   dt " Opus1-uC16 processor 16Kx16";
1580   004f
1581   0070
1582   0075
1583   0073
1584   0031
1585   002d
1586   0075
1587   0043
1588   0031
1589   0036
158a   0020
158b   0070
158c   0072
158d   006f
158e   0063
158f   0065
1590   0073
1591   0073
1592   006f
1593   0072
1594   0020
1595   0031
1596   0036
1597   004b
1598   0078
1599   0031
159a   0036
159b   0000
159c   0020   dt " version MWYY (Month Week Year)";
159d   0076
159e   0065
159f   0072
15a0   0073
15a1   0069
15a2   006f
15a3   006e
15a4   0020
15a5   004d
15a6   0057
15a7   0059
15a8   0059
15a9   0020
15aa   0028
15ab   004d
15ac   006f
15ad   006e
15ae   0074
15af   0068
15b0   0020
15b1   0057
15b2   0065
15b3   0065
15b4   006b
15b5   0020
15b6   0059
15b7   0065
15b8   0061
15b9   0072
15ba   0029
15bb   0000
15bc   007c   dt "|||||||";
15bd   007c
15be   007c
15bf   007c
15c0   007c
15c1   007c
15c2   007c
15c3   0000
15c4   0000   dt "";
15c5   0020   dt " From top to bottom_";
15c6   0046
15c7   0072
15c8   006f
15c9   006d
15ca   0020
15cb   0074
15cc   006f
15cd   0070
15ce   0020
15cf   0074
15d0   006f
15d1   0020
15d2   0062
15d3   006f
15d4   0074
15d5   0074
15d6   006f
15d7   006d
15d8   005f
15d9   0000
15da   005f   dt "__LED 1 : UART activity";
15db   005f
15dc   004c
15dd   0045
15de   0044
15df   0020
15e0   0031
15e1   0020
15e2   003a
15e3   0020
15e4   0055
15e5   0041
15e6   0052
15e7   0054
15e8   0020
15e9   0061
15ea   0063
15eb   0074
15ec   0069
15ed   0076
15ee   0069
15ef   0074
15f0   0079
15f1   0000
15f2   005f   dt "__LED 2 : Program protection_ON";
15f3   005f
15f4   004c
15f5   0045
15f6   0044
15f7   0020
15f8   0032
15f9   0020
15fa   003a
15fb   0020
15fc   0050
15fd   0072
15fe   006f
15ff   0067
1600   0072
1601   0061
1602   006d
1603   0020
1604   0070
1605   0072
1606   006f
1607   0074
1608   0065
1609   0063
160a   0074
160b   0069
160c   006f
160d   006e
160e   005f
160f   004f
1610   004e
1611   0000
1612   005f   dt "__LED 3 : Attempt to write on protected RAM";
1613   005f
1614   004c
1615   0045
1616   0044
1617   0020
1618   0033
1619   0020
161a   003a
161b   0020
161c   0041
161d   0074
161e   0074
161f   0065
1620   006d
1621   0070
1622   0074
1623   0020
1624   0074
1625   006f
1626   0020
1627   0077
1628   0072
1629   0069
162a   0074
162b   0065
162c   0020
162d   006f
162e   006e
162f   0020
1630   0070
1631   0072
1632   006f
1633   0074
1634   0065
1635   0063
1636   0074
1637   0065
1638   0064
1639   0020
163a   0052
163b   0041
163c   004d
163d   0000
163e   005f   dt "__LED 4 : Wrong OPCODE, big problem";
163f   005f
1640   004c
1641   0045
1642   0044
1643   0020
1644   0034
1645   0020
1646   003a
1647   0020
1648   0057
1649   0072
164a   006f
164b   006e
164c   0067
164d   0020
164e   004f
164f   0050
1650   0043
1651   004f
1652   0044
1653   0045
1654   002c
1655   0020
1656   0062
1657   0069
1658   0067
1659   0020
165a   0070
165b   0072
165c   006f
165d   0062
165e   006c
165f   0065
1660   006d
1661   0000
1662   005f   dt "__LED 5 : IRQ enabled and heartbeat_(1Sec)";
1663   005f
1664   004c
1665   0045
1666   0044
1667   0020
1668   0035
1669   0020
166a   003a
166b   0020
166c   0049
166d   0052
166e   0051
166f   0020
1670   0065
1671   006e
1672   0061
1673   0062
1674   006c
1675   0065
1676   0064
1677   0020
1678   0061
1679   006e
167a   0064
167b   0020
167c   0068
167d   0065
167e   0061
167f   0072
1680   0074
1681   0062
1682   0065
1683   0061
1684   0074
1685   005f
1686   0028
1687   0031
1688   0053
1689   0065
168a   0063
168b   0029
168c   0000
168d   005f   dt "__LED 6 : OFF";
168e   005f
168f   004c
1690   0045
1691   0044
1692   0020
1693   0036
1694   0020
1695   003a
1696   0020
1697   004f
1698   0046
1699   0046
169a   0000
169b   005f   dt "__LED 7 : OFF";
169c   005f
169d   004c
169e   0045
169f   0044
16a0   0020
16a1   0037
16a2   0020
16a3   003a
16a4   0020
16a5   004f
16a6   0046
16a7   0046
16a8   0000
16a9   005f   dt "__LED 8 : Main 100MHz clock LOCKED";
16aa   005f
16ab   004c
16ac   0045
16ad   0044
16ae   0020
16af   0038
16b0   0020
16b1   003a
16b2   0020
16b3   004d
16b4   0061
16b5   0069
16b6   006e
16b7   0020
16b8   0031
16b9   0030
16ba   0030
16bb   004d
16bc   0048
16bd   007a
16be   0020
16bf   0063
16c0   006c
16c1   006f
16c2   0063
16c3   006b
16c4   0020
16c5   004c
16c6   004f
16c7   0043
16c8   004b
16c9   0045
16ca   0044
16cb   0000
16cc   0000   dt "";
16cd   005f   dt "__PB____: Hardware Reset";
16ce   005f
16cf   0050
16d0   0042
16d1   005f
16d2   005f
16d3   005f
16d4   005f
16d5   003a
16d6   0020
16d7   0048
16d8   0061
16d9   0072
16da   0064
16db   0077
16dc   0061
16dd   0072
16de   0065
16df   0020
16e0   0052
16e1   0065
16e2   0073
16e3   0065
16e4   0074
16e5   0000
16e6   007c   dt "|||||||";
16e7   007c
16e8   007c
16e9   007c
16ea   007c
16eb   007c
16ec   007c
16ed   0000
16ee   0054   dt "To see the assembly code of this program";
16ef   006f
16f0   0020
16f1   0073
16f2   0065
16f3   0065
16f4   0020
16f5   0074
16f6   0068
16f7   0065
16f8   0020
16f9   0061
16fa   0073
16fb   0073
16fc   0065
16fd   006d
16fe   0062
16ff   006c
1700   0079
1701   0020
1702   0063
1703   006f
1704   0064
1705   0065
1706   0020
1707   006f
1708   0066
1709   0020
170a   0074
170b   0068
170c   0069
170d   0073
170e   0020
170f   0070
1710   0072
1711   006f
1712   0067
1713   0072
1714   0061
1715   006d
1716   0000
1717   0020   dt " open MasterControl.asm file";
1718   006f
1719   0070
171a   0065
171b   006e
171c   0020
171d   004d
171e   0061
171f   0073
1720   0074
1721   0065
1722   0072
1723   0043
1724   006f
1725   006e
1726   0074
1727   0072
1728   006f
1729   006c
172a   002e
172b   0061
172c   0073
172d   006d
172e   0020
172f   0066
1730   0069
1731   006c
1732   0065
1733   0000
1734   0000   dt "";
1735   007c   dt "|||||||";
1736   007c
1737   007c
1738   007c
1739   007c
173a   007c
173b   007c
173c   0000
173d   0020   dt " Space key will refresh the screen";
173e   0053
173f   0070
1740   0061
1741   0063
1742   0065
1743   0020
1744   006b
1745   0065
1746   0079
1747   0020
1748   0077
1749   0069
174a   006c
174b   006c
174c   0020
174d   0072
174e   0065
174f   0066
1750   0072
1751   0065
1752   0073
1753   0068
1754   0020
1755   0074
1756   0068
1757   0065
1758   0020
1759   0073
175a   0063
175b   0072
175c   0065
175d   0065
175e   006e
175f   0000
1760   0020   dt " Enter x to exit (previous menu)";
1761   0045
1762   006e
1763   0074
1764   0065
1765   0072
1766   0020
1767   0078
1768   0020
1769   0074
176a   006f
176b   0020
176c   0065
176d   0078
176e   0069
176f   0074
1770   0020
1771   0028
1772   0070
1773   0072
1774   0065
1775   0076
1776   0069
1777   006f
1778   0075
1779   0073
177a   0020
177b   006d
177c   0065
177d   006e
177e   0075
177f   0029
1780   0000
1781   007c   dt "|||||||";
1782   007c
1783   007c
1784   007c
1785   007c
1786   007c
1787   007c
1788   0000
1789   0003   dw ETX;
178a   007c   help_io: dt "||| I/O Board Layout |||";
178b   007c
178c   007c
178d   0020
178e   0049
178f   002f
1790   004f
1791   0020
1792   0042
1793   006f
1794   0061
1795   0072
1796   0064
1797   0020
1798   004c
1799   0061
179a   0079
179b   006f
179c   0075
179d   0074
179e   0020
179f   007c
17a0   007c
17a1   007c
17a2   0000
17a3   0020   dt " I/O board LEDs/switches/push buttons";
17a4   0049
17a5   002f
17a6   004f
17a7   0020
17a8   0062
17a9   006f
17aa   0061
17ab   0072
17ac   0064
17ad   0020
17ae   004c
17af   0045
17b0   0044
17b1   0073
17b2   002f
17b3   0073
17b4   0077
17b5   0069
17b6   0074
17b7   0063
17b8   0068
17b9   0065
17ba   0073
17bb   002f
17bc   0070
17bd   0075
17be   0073
17bf   0068
17c0   0020
17c1   0062
17c2   0075
17c3   0074
17c4   0074
17c5   006f
17c6   006e
17c7   0073
17c8   0000
17c9   0000   dt "";
17ca   005f   dt "______________*-------------*______________";
17cb   005f
17cc   005f
17cd   005f
17ce   005f
17cf   005f
17d0   005f
17d1   005f
17d2   005f
17d3   005f
17d4   005f
17d5   005f
17d6   005f
17d7   005f
17d8   002a
17d9   002d
17da   002d
17db   002d
17dc   002d
17dd   002d
17de   002d
17df   002d
17e0   002d
17e1   002d
17e2   002d
17e3   002d
17e4   002d
17e5   002d
17e6   002a
17e7   005f
17e8   005f
17e9   005f
17ea   005f
17eb   005f
17ec   005f
17ed   005f
17ee   005f
17ef   005f
17f0   005f
17f1   005f
17f2   005f
17f3   005f
17f4   005f
17f5   0000
17f6   005f   dt "______________* PB TOP/UP___*______________";
17f7   005f
17f8   005f
17f9   005f
17fa   005f
17fb   005f
17fc   005f
17fd   005f
17fe   005f
17ff   005f
1800   005f
1801   005f
1802   005f
1803   005f
1804   002a
1805   0020
1806   0050
1807   0042
1808   0020
1809   0054
180a   004f
180b   0050
180c   002f
180d   0055
180e   0050
180f   005f
1810   005f
1811   005f
1812   002a
1813   005f
1814   005f
1815   005f
1816   005f
1817   005f
1818   005f
1819   005f
181a   005f
181b   005f
181c   005f
181d   005f
181e   005f
181f   005f
1820   005f
1821   0000
1822   005f   dt "______________*-------------*______________";
1823   005f
1824   005f
1825   005f
1826   005f
1827   005f
1828   005f
1829   005f
182a   005f
182b   005f
182c   005f
182d   005f
182e   005f
182f   005f
1830   002a
1831   002d
1832   002d
1833   002d
1834   002d
1835   002d
1836   002d
1837   002d
1838   002d
1839   002d
183a   002d
183b   002d
183c   002d
183d   002d
183e   002a
183f   005f
1840   005f
1841   005f
1842   005f
1843   005f
1844   005f
1845   005f
1846   005f
1847   005f
1848   005f
1849   005f
184a   005f
184b   005f
184c   005f
184d   0000
184e   002a   dt "*------------**-------------**------------*";
184f   002d
1850   002d
1851   002d
1852   002d
1853   002d
1854   002d
1855   002d
1856   002d
1857   002d
1858   002d
1859   002d
185a   002d
185b   002a
185c   002a
185d   002d
185e   002d
185f   002d
1860   002d
1861   002d
1862   002d
1863   002d
1864   002d
1865   002d
1866   002d
1867   002d
1868   002d
1869   002d
186a   002a
186b   002a
186c   002d
186d   002d
186e   002d
186f   002d
1870   002d
1871   002d
1872   002d
1873   002d
1874   002d
1875   002d
1876   002d
1877   002d
1878   002a
1879   0000
187a   002a   dt "* PB LEFT____** PB CENTER___** PB RIGHT___*";
187b   0020
187c   0050
187d   0042
187e   0020
187f   004c
1880   0045
1881   0046
1882   0054
1883   005f
1884   005f
1885   005f
1886   005f
1887   002a
1888   002a
1889   0020
188a   0050
188b   0042
188c   0020
188d   0043
188e   0045
188f   004e
1890   0054
1891   0045
1892   0052
1893   005f
1894   005f
1895   005f
1896   002a
1897   002a
1898   0020
1899   0050
189a   0042
189b   0020
189c   0052
189d   0049
189e   0047
189f   0048
18a0   0054
18a1   005f
18a2   005f
18a3   005f
18a4   002a
18a5   0000
18a6   002a   dt "*------------**-------------**------------*";
18a7   002d
18a8   002d
18a9   002d
18aa   002d
18ab   002d
18ac   002d
18ad   002d
18ae   002d
18af   002d
18b0   002d
18b1   002d
18b2   002d
18b3   002a
18b4   002a
18b5   002d
18b6   002d
18b7   002d
18b8   002d
18b9   002d
18ba   002d
18bb   002d
18bc   002d
18bd   002d
18be   002d
18bf   002d
18c0   002d
18c1   002d
18c2   002a
18c3   002a
18c4   002d
18c5   002d
18c6   002d
18c7   002d
18c8   002d
18c9   002d
18ca   002d
18cb   002d
18cc   002d
18cd   002d
18ce   002d
18cf   002d
18d0   002a
18d1   0000
18d2   005f   dt "______________*-------------*______________";
18d3   005f
18d4   005f
18d5   005f
18d6   005f
18d7   005f
18d8   005f
18d9   005f
18da   005f
18db   005f
18dc   005f
18dd   005f
18de   005f
18df   005f
18e0   002a
18e1   002d
18e2   002d
18e3   002d
18e4   002d
18e5   002d
18e6   002d
18e7   002d
18e8   002d
18e9   002d
18ea   002d
18eb   002d
18ec   002d
18ed   002d
18ee   002a
18ef   005f
18f0   005f
18f1   005f
18f2   005f
18f3   005f
18f4   005f
18f5   005f
18f6   005f
18f7   005f
18f8   005f
18f9   005f
18fa   005f
18fb   005f
18fc   005f
18fd   0000
18fe   005f   dt "______________* PB BOT/DWN__*______________";
18ff   005f
1900   005f
1901   005f
1902   005f
1903   005f
1904   005f
1905   005f
1906   005f
1907   005f
1908   005f
1909   005f
190a   005f
190b   005f
190c   002a
190d   0020
190e   0050
190f   0042
1910   0020
1911   0042
1912   004f
1913   0054
1914   002f
1915   0044
1916   0057
1917   004e
1918   005f
1919   005f
191a   002a
191b   005f
191c   005f
191d   005f
191e   005f
191f   005f
1920   005f
1921   005f
1922   005f
1923   005f
1924   005f
1925   005f
1926   005f
1927   005f
1928   005f
1929   0000
192a   005f   dt "______________*-------------*______________";
192b   005f
192c   005f
192d   005f
192e   005f
192f   005f
1930   005f
1931   005f
1932   005f
1933   005f
1934   005f
1935   005f
1936   005f
1937   005f
1938   002a
1939   002d
193a   002d
193b   002d
193c   002d
193d   002d
193e   002d
193f   002d
1940   002d
1941   002d
1942   002d
1943   002d
1944   002d
1945   002d
1946   002a
1947   005f
1948   005f
1949   005f
194a   005f
194b   005f
194c   005f
194d   005f
194e   005f
194f   005f
1950   005f
1951   005f
1952   005f
1953   005f
1954   005f
1955   0000
1956   0000   dt "";
1957   002a   dt "*---------**---------**---------*---------*";
1958   002d
1959   002d
195a   002d
195b   002d
195c   002d
195d   002d
195e   002d
195f   002d
1960   002d
1961   002a
1962   002a
1963   002d
1964   002d
1965   002d
1966   002d
1967   002d
1968   002d
1969   002d
196a   002d
196b   002d
196c   002a
196d   002a
196e   002d
196f   002d
1970   002d
1971   002d
1972   002d
1973   002d
1974   002d
1975   002d
1976   002d
1977   002a
1978   002d
1979   002d
197a   002d
197b   002d
197c   002d
197d   002d
197e   002d
197f   002d
1980   002d
1981   002a
1982   0000
1983   002a   dt "*__digit__**__digit__**__digit__*__digit__*";
1984   005f
1985   005f
1986   0064
1987   0069
1988   0067
1989   0069
198a   0074
198b   005f
198c   005f
198d   002a
198e   002a
198f   005f
1990   005f
1991   0064
1992   0069
1993   0067
1994   0069
1995   0074
1996   005f
1997   005f
1998   002a
1999   002a
199a   005f
199b   005f
199c   0064
199d   0069
199e   0067
199f   0069
19a0   0074
19a1   005f
19a2   005f
19a3   002a
19a4   005f
19a5   005f
19a6   0064
19a7   0069
19a8   0067
19a9   0069
19aa   0074
19ab   005f
19ac   005f
19ad   002a
19ae   0000
19af   002a   dt "*____4____**____3____**____2____*____1____*";
19b0   005f
19b1   005f
19b2   005f
19b3   005f
19b4   0034
19b5   005f
19b6   005f
19b7   005f
19b8   005f
19b9   002a
19ba   002a
19bb   005f
19bc   005f
19bd   005f
19be   005f
19bf   0033
19c0   005f
19c1   005f
19c2   005f
19c3   005f
19c4   002a
19c5   002a
19c6   005f
19c7   005f
19c8   005f
19c9   005f
19ca   0032
19cb   005f
19cc   005f
19cd   005f
19ce   005f
19cf   002a
19d0   005f
19d1   005f
19d2   005f
19d3   005f
19d4   0031
19d5   005f
19d6   005f
19d7   005f
19d8   005f
19d9   002a
19da   0000
19db   002a   dt "*---------**---------**---------*---------*";
19dc   002d
19dd   002d
19de   002d
19df   002d
19e0   002d
19e1   002d
19e2   002d
19e3   002d
19e4   002d
19e5   002a
19e6   002a
19e7   002d
19e8   002d
19e9   002d
19ea   002d
19eb   002d
19ec   002d
19ed   002d
19ee   002d
19ef   002d
19f0   002a
19f1   002a
19f2   002d
19f3   002d
19f4   002d
19f5   002d
19f6   002d
19f7   002d
19f8   002d
19f9   002d
19fa   002d
19fb   002a
19fc   002d
19fd   002d
19fe   002d
19ff   002d
1a00   002d
1a01   002d
1a02   002d
1a03   002d
1a04   002d
1a05   002a
1a06   0000
1a07   0000   dt "";
1a08   002a   dt "*------------**-------------**------------*";
1a09   002d
1a0a   002d
1a0b   002d
1a0c   002d
1a0d   002d
1a0e   002d
1a0f   002d
1a10   002d
1a11   002d
1a12   002d
1a13   002d
1a14   002d
1a15   002a
1a16   002a
1a17   002d
1a18   002d
1a19   002d
1a1a   002d
1a1b   002d
1a1c   002d
1a1d   002d
1a1e   002d
1a1f   002d
1a20   002d
1a21   002d
1a22   002d
1a23   002d
1a24   002a
1a25   002a
1a26   002d
1a27   002d
1a28   002d
1a29   002d
1a2a   002d
1a2b   002d
1a2c   002d
1a2d   002d
1a2e   002d
1a2f   002d
1a30   002d
1a31   002d
1a32   002a
1a33   0000
1a34   002a   dt "*___L E D 3__**___L E D 2___**___L E D 1__*";
1a35   005f
1a36   005f
1a37   005f
1a38   004c
1a39   0020
1a3a   0045
1a3b   0020
1a3c   0044
1a3d   0020
1a3e   0033
1a3f   005f
1a40   005f
1a41   002a
1a42   002a
1a43   005f
1a44   005f
1a45   005f
1a46   004c
1a47   0020
1a48   0045
1a49   0020
1a4a   0044
1a4b   0020
1a4c   0032
1a4d   005f
1a4e   005f
1a4f   005f
1a50   002a
1a51   002a
1a52   005f
1a53   005f
1a54   005f
1a55   004c
1a56   0020
1a57   0045
1a58   0020
1a59   0044
1a5a   0020
1a5b   0031
1a5c   005f
1a5d   005f
1a5e   002a
1a5f   0000
1a60   002a   dt "*------------**-------------**------------*";
1a61   002d
1a62   002d
1a63   002d
1a64   002d
1a65   002d
1a66   002d
1a67   002d
1a68   002d
1a69   002d
1a6a   002d
1a6b   002d
1a6c   002d
1a6d   002a
1a6e   002a
1a6f   002d
1a70   002d
1a71   002d
1a72   002d
1a73   002d
1a74   002d
1a75   002d
1a76   002d
1a77   002d
1a78   002d
1a79   002d
1a7a   002d
1a7b   002d
1a7c   002a
1a7d   002a
1a7e   002d
1a7f   002d
1a80   002d
1a81   002d
1a82   002d
1a83   002d
1a84   002d
1a85   002d
1a86   002d
1a87   002d
1a88   002d
1a89   002d
1a8a   002a
1a8b   0000
1a8c   005f   dt "_----bits----__----bits-----__----bits----_";
1a8d   002d
1a8e   002d
1a8f   002d
1a90   002d
1a91   0062
1a92   0069
1a93   0074
1a94   0073
1a95   002d
1a96   002d
1a97   002d
1a98   002d
1a99   005f
1a9a   005f
1a9b   002d
1a9c   002d
1a9d   002d
1a9e   002d
1a9f   0062
1aa0   0069
1aa1   0074
1aa2   0073
1aa3   002d
1aa4   002d
1aa5   002d
1aa6   002d
1aa7   002d
1aa8   005f
1aa9   005f
1aaa   002d
1aab   002d
1aac   002d
1aad   002d
1aae   0062
1aaf   0069
1ab0   0074
1ab1   0073
1ab2   002d
1ab3   002d
1ab4   002d
1ab5   002d
1ab6   005f
1ab7   0000
1ab8   005f   dt "_23........16__15..........8__7..........0_";
1ab9   0032
1aba   0033
1abb   002e
1abc   002e
1abd   002e
1abe   002e
1abf   002e
1ac0   002e
1ac1   002e
1ac2   002e
1ac3   0031
1ac4   0036
1ac5   005f
1ac6   005f
1ac7   0031
1ac8   0035
1ac9   002e
1aca   002e
1acb   002e
1acc   002e
1acd   002e
1ace   002e
1acf   002e
1ad0   002e
1ad1   002e
1ad2   002e
1ad3   0038
1ad4   005f
1ad5   005f
1ad6   0037
1ad7   002e
1ad8   002e
1ad9   002e
1ada   002e
1adb   002e
1adc   002e
1add   002e
1ade   002e
1adf   002e
1ae0   002e
1ae1   0030
1ae2   005f
1ae3   0000
1ae4   0000   dt "";
1ae5   0000   dt "";
1ae6   002a   dt "*------------**-------------**------------*";
1ae7   002d
1ae8   002d
1ae9   002d
1aea   002d
1aeb   002d
1aec   002d
1aed   002d
1aee   002d
1aef   002d
1af0   002d
1af1   002d
1af2   002d
1af3   002a
1af4   002a
1af5   002d
1af6   002d
1af7   002d
1af8   002d
1af9   002d
1afa   002d
1afb   002d
1afc   002d
1afd   002d
1afe   002d
1aff   002d
1b00   002d
1b01   002d
1b02   002a
1b03   002a
1b04   002d
1b05   002d
1b06   002d
1b07   002d
1b08   002d
1b09   002d
1b0a   002d
1b0b   002d
1b0c   002d
1b0d   002d
1b0e   002d
1b0f   002d
1b10   002a
1b11   0000
1b12   002a   dt "* DIP SW 3___** DIP SW 2____** DIP SW 1___*";
1b13   0020
1b14   0044
1b15   0049
1b16   0050
1b17   0020
1b18   0053
1b19   0057
1b1a   0020
1b1b   0033
1b1c   005f
1b1d   005f
1b1e   005f
1b1f   002a
1b20   002a
1b21   0020
1b22   0044
1b23   0049
1b24   0050
1b25   0020
1b26   0053
1b27   0057
1b28   0020
1b29   0032
1b2a   005f
1b2b   005f
1b2c   005f
1b2d   005f
1b2e   002a
1b2f   002a
1b30   0020
1b31   0044
1b32   0049
1b33   0050
1b34   0020
1b35   0053
1b36   0057
1b37   0020
1b38   0031
1b39   005f
1b3a   005f
1b3b   005f
1b3c   002a
1b3d   0000
1b3e   002a   dt "*------------**-------------**------------*";
1b3f   002d
1b40   002d
1b41   002d
1b42   002d
1b43   002d
1b44   002d
1b45   002d
1b46   002d
1b47   002d
1b48   002d
1b49   002d
1b4a   002d
1b4b   002a
1b4c   002a
1b4d   002d
1b4e   002d
1b4f   002d
1b50   002d
1b51   002d
1b52   002d
1b53   002d
1b54   002d
1b55   002d
1b56   002d
1b57   002d
1b58   002d
1b59   002d
1b5a   002a
1b5b   002a
1b5c   002d
1b5d   002d
1b5e   002d
1b5f   002d
1b60   002d
1b61   002d
1b62   002d
1b63   002d
1b64   002d
1b65   002d
1b66   002d
1b67   002d
1b68   002a
1b69   0000
1b6a   005f   dt "_----bits----__----bits-----__----bits----_";
1b6b   002d
1b6c   002d
1b6d   002d
1b6e   002d
1b6f   0062
1b70   0069
1b71   0074
1b72   0073
1b73   002d
1b74   002d
1b75   002d
1b76   002d
1b77   005f
1b78   005f
1b79   002d
1b7a   002d
1b7b   002d
1b7c   002d
1b7d   0062
1b7e   0069
1b7f   0074
1b80   0073
1b81   002d
1b82   002d
1b83   002d
1b84   002d
1b85   002d
1b86   005f
1b87   005f
1b88   002d
1b89   002d
1b8a   002d
1b8b   002d
1b8c   0062
1b8d   0069
1b8e   0074
1b8f   0073
1b90   002d
1b91   002d
1b92   002d
1b93   002d
1b94   005f
1b95   0000
1b96   005f   dt "_23........16__15..........8__7..........0_";
1b97   0032
1b98   0033
1b99   002e
1b9a   002e
1b9b   002e
1b9c   002e
1b9d   002e
1b9e   002e
1b9f   002e
1ba0   002e
1ba1   0031
1ba2   0036
1ba3   005f
1ba4   005f
1ba5   0031
1ba6   0035
1ba7   002e
1ba8   002e
1ba9   002e
1baa   002e
1bab   002e
1bac   002e
1bad   002e
1bae   002e
1baf   002e
1bb0   002e
1bb1   0038
1bb2   005f
1bb3   005f
1bb4   0037
1bb5   002e
1bb6   002e
1bb7   002e
1bb8   002e
1bb9   002e
1bba   002e
1bbb   002e
1bbc   002e
1bbd   002e
1bbe   002e
1bbf   0030
1bc0   005f
1bc1   0000
1bc2   0000   dt "";
1bc3   007c   dt "|||||||";
1bc4   007c
1bc5   007c
1bc6   007c
1bc7   007c
1bc8   007c
1bc9   007c
1bca   0000
1bcb   0054   dt "To see the assembly code of this program";
1bcc   006f
1bcd   0020
1bce   0073
1bcf   0065
1bd0   0065
1bd1   0020
1bd2   0074
1bd3   0068
1bd4   0065
1bd5   0020
1bd6   0061
1bd7   0073
1bd8   0073
1bd9   0065
1bda   006d
1bdb   0062
1bdc   006c
1bdd   0079
1bde   0020
1bdf   0063
1be0   006f
1be1   0064
1be2   0065
1be3   0020
1be4   006f
1be5   0066
1be6   0020
1be7   0074
1be8   0068
1be9   0069
1bea   0073
1beb   0020
1bec   0070
1bed   0072
1bee   006f
1bef   0067
1bf0   0072
1bf1   0061
1bf2   006d
1bf3   0000
1bf4   0020   dt " open MasterControl.asm file";
1bf5   006f
1bf6   0070
1bf7   0065
1bf8   006e
1bf9   0020
1bfa   004d
1bfb   0061
1bfc   0073
1bfd   0074
1bfe   0065
1bff   0072
1c00   0043
1c01   006f
1c02   006e
1c03   0074
1c04   0072
1c05   006f
1c06   006c
1c07   002e
1c08   0061
1c09   0073
1c0a   006d
1c0b   0020
1c0c   0066
1c0d   0069
1c0e   006c
1c0f   0065
1c10   0000
1c11   0000   dt "";
1c12   007c   dt "|||||||";
1c13   007c
1c14   007c
1c15   007c
1c16   007c
1c17   007c
1c18   007c
1c19   0000
1c1a   0020   dt " Space key will refresh the screen";
1c1b   0053
1c1c   0070
1c1d   0061
1c1e   0063
1c1f   0065
1c20   0020
1c21   006b
1c22   0065
1c23   0079
1c24   0020
1c25   0077
1c26   0069
1c27   006c
1c28   006c
1c29   0020
1c2a   0072
1c2b   0065
1c2c   0066
1c2d   0072
1c2e   0065
1c2f   0073
1c30   0068
1c31   0020
1c32   0074
1c33   0068
1c34   0065
1c35   0020
1c36   0073
1c37   0063
1c38   0072
1c39   0065
1c3a   0065
1c3b   006e
1c3c   0000
1c3d   0020   dt " Enter x to exit (previous menu)";
1c3e   0045
1c3f   006e
1c40   0074
1c41   0065
1c42   0072
1c43   0020
1c44   0078
1c45   0020
1c46   0074
1c47   006f
1c48   0020
1c49   0065
1c4a   0078
1c4b   0069
1c4c   0074
1c4d   0020
1c4e   0028
1c4f   0070
1c50   0072
1c51   0065
1c52   0076
1c53   0069
1c54   006f
1c55   0075
1c56   0073
1c57   0020
1c58   006d
1c59   0065
1c5a   006e
1c5b   0075
1c5c   0029
1c5d   0000
1c5e   007c   dt "|||||||";
1c5f   007c
1c60   007c
1c61   007c
1c62   007c
1c63   007c
1c64   007c
1c65   0000
1c66   0003   dw ETX;
1c67   007c   helpa_m: dt "| H E L P |";
1c68   0020
1c69   0048
1c6a   0020
1c6b   0045
1c6c   0020
1c6d   004c
1c6e   0020
1c6f   0050
1c70   0020
1c71   007c
1c72   0000
1c73   007c   dt "| Application menu";
1c74   0020
1c75   0041
1c76   0070
1c77   0070
1c78   006c
1c79   0069
1c7a   0063
1c7b   0061
1c7c   0074
1c7d   0069
1c7e   006f
1c7f   006e
1c80   0020
1c81   006d
1c82   0065
1c83   006e
1c84   0075
1c85   0000
1c86   0020   dt " w = walking pattern LEDs";
1c87   0077
1c88   0020
1c89   003d
1c8a   0020
1c8b   0077
1c8c   0061
1c8d   006c
1c8e   006b
1c8f   0069
1c90   006e
1c91   0067
1c92   0020
1c93   0070
1c94   0061
1c95   0074
1c96   0074
1c97   0065
1c98   0072
1c99   006e
1c9a   0020
1c9b   004c
1c9c   0045
1c9d   0044
1c9e   0073
1c9f   0000
1ca0   0020   dt " s = copy switches to LEDs";
1ca1   0073
1ca2   0020
1ca3   003d
1ca4   0020
1ca5   0063
1ca6   006f
1ca7   0070
1ca8   0079
1ca9   0020
1caa   0073
1cab   0077
1cac   0069
1cad   0074
1cae   0063
1caf   0068
1cb0   0065
1cb1   0073
1cb2   0020
1cb3   0074
1cb4   006f
1cb5   0020
1cb6   004c
1cb7   0045
1cb8   0044
1cb9   0073
1cba   0000
1cbb   0000   dt "";
1cbc   0020   dt " p = prints on xTerm in Hexadecimal";
1cbd   0070
1cbe   0020
1cbf   003d
1cc0   0020
1cc1   0070
1cc2   0072
1cc3   0069
1cc4   006e
1cc5   0074
1cc6   0073
1cc7   0020
1cc8   006f
1cc9   006e
1cca   0020
1ccb   0078
1ccc   0054
1ccd   0065
1cce   0072
1ccf   006d
1cd0   0020
1cd1   0069
1cd2   006e
1cd3   0020
1cd4   0048
1cd5   0065
1cd6   0078
1cd7   0061
1cd8   0064
1cd9   0065
1cda   0063
1cdb   0069
1cdc   006d
1cdd   0061
1cde   006c
1cdf   0000
1ce0   005f   dt "___Raw data, Degree C and Degree F";
1ce1   005f
1ce2   005f
1ce3   0052
1ce4   0061
1ce5   0077
1ce6   0020
1ce7   0064
1ce8   0061
1ce9   0074
1cea   0061
1ceb   002c
1cec   0020
1ced   0044
1cee   0065
1cef   0067
1cf0   0072
1cf1   0065
1cf2   0065
1cf3   0020
1cf4   0043
1cf5   0020
1cf6   0061
1cf7   006e
1cf8   0064
1cf9   0020
1cfa   0044
1cfb   0065
1cfc   0067
1cfd   0072
1cfe   0065
1cff   0065
1d00   0020
1d01   0046
1d02   0000
1d03   005f   dt "___Raw data, vccint, vccaux and vp/vn";
1d04   005f
1d05   005f
1d06   0052
1d07   0061
1d08   0077
1d09   0020
1d0a   0064
1d0b   0061
1d0c   0074
1d0d   0061
1d0e   002c
1d0f   0020
1d10   0076
1d11   0063
1d12   0063
1d13   0069
1d14   006e
1d15   0074
1d16   002c
1d17   0020
1d18   0076
1d19   0063
1d1a   0063
1d1b   0061
1d1c   0075
1d1d   0078
1d1e   0020
1d1f   0061
1d20   006e
1d21   0064
1d22   0020
1d23   0076
1d24   0070
1d25   002f
1d26   0076
1d27   006e
1d28   0000
1d29   0000   dt "";
1d2a   0020   dt " d = displays on 7-seg in Decimal";
1d2b   0064
1d2c   0020
1d2d   003d
1d2e   0020
1d2f   0064
1d30   0069
1d31   0073
1d32   0070
1d33   006c
1d34   0061
1d35   0079
1d36   0073
1d37   0020
1d38   006f
1d39   006e
1d3a   0020
1d3b   0037
1d3c   002d
1d3d   0073
1d3e   0065
1d3f   0067
1d40   0020
1d41   0069
1d42   006e
1d43   0020
1d44   0044
1d45   0065
1d46   0063
1d47   0069
1d48   006d
1d49   0061
1d4a   006c
1d4b   0000
1d4c   005f   dt "___Degree C, Degree F";
1d4d   005f
1d4e   005f
1d4f   0044
1d50   0065
1d51   0067
1d52   0072
1d53   0065
1d54   0065
1d55   0020
1d56   0043
1d57   002c
1d58   0020
1d59   0044
1d5a   0065
1d5b   0067
1d5c   0072
1d5d   0065
1d5e   0065
1d5f   0020
1d60   0046
1d61   0000
1d62   005f   dt "___vccint, vccaux and vp/vn";
1d63   005f
1d64   005f
1d65   0076
1d66   0063
1d67   0063
1d68   0069
1d69   006e
1d6a   0074
1d6b   002c
1d6c   0020
1d6d   0076
1d6e   0063
1d6f   0063
1d70   0061
1d71   0075
1d72   0078
1d73   0020
1d74   0061
1d75   006e
1d76   0064
1d77   0020
1d78   0076
1d79   0070
1d7a   002f
1d7b   0076
1d7c   006e
1d7d   0000
1d7e   005f   dt "___0=C, 1=F, 2=vccint, 3=vccaux, 4=vp/vn";
1d7f   005f
1d80   005f
1d81   0030
1d82   003d
1d83   0043
1d84   002c
1d85   0020
1d86   0031
1d87   003d
1d88   0046
1d89   002c
1d8a   0020
1d8b   0032
1d8c   003d
1d8d   0076
1d8e   0063
1d8f   0063
1d90   0069
1d91   006e
1d92   0074
1d93   002c
1d94   0020
1d95   0033
1d96   003d
1d97   0076
1d98   0063
1d99   0063
1d9a   0061
1d9b   0075
1d9c   0078
1d9d   002c
1d9e   0020
1d9f   0034
1da0   003d
1da1   0076
1da2   0070
1da3   002f
1da4   0076
1da5   006e
1da6   0000
1da7   005f   dt "___push buttons: BTNL=C BTNU=Clock BTNR=F";
1da8   005f
1da9   005f
1daa   0070
1dab   0075
1dac   0073
1dad   0068
1dae   0020
1daf   0062
1db0   0075
1db1   0074
1db2   0074
1db3   006f
1db4   006e
1db5   0073
1db6   003a
1db7   0020
1db8   0042
1db9   0054
1dba   004e
1dbb   004c
1dbc   003d
1dbd   0043
1dbe   0020
1dbf   0042
1dc0   0054
1dc1   004e
1dc2   0055
1dc3   003d
1dc4   0043
1dc5   006c
1dc6   006f
1dc7   0063
1dc8   006b
1dc9   0020
1dca   0042
1dcb   0054
1dcc   004e
1dcd   0052
1dce   003d
1dcf   0046
1dd0   0000
1dd1   0000   dt "";
1dd2   007c   dt "| Print/Display on xTerm/7-seg";
1dd3   0020
1dd4   0050
1dd5   0072
1dd6   0069
1dd7   006e
1dd8   0074
1dd9   002f
1dda   0044
1ddb   0069
1ddc   0073
1ddd   0070
1dde   006c
1ddf   0061
1de0   0079
1de1   0020
1de2   006f
1de3   006e
1de4   0020
1de5   0078
1de6   0054
1de7   0065
1de8   0072
1de9   006d
1dea   002f
1deb   0037
1dec   002d
1ded   0073
1dee   0065
1def   0067
1df0   0000
1df1   0020   dt " H = Print/Display clock Hours:Minutes ";
1df2   0048
1df3   0020
1df4   003d
1df5   0020
1df6   0050
1df7   0072
1df8   0069
1df9   006e
1dfa   0074
1dfb   002f
1dfc   0044
1dfd   0069
1dfe   0073
1dff   0070
1e00   006c
1e01   0061
1e02   0079
1e03   0020
1e04   0063
1e05   006c
1e06   006f
1e07   0063
1e08   006b
1e09   0020
1e0a   0048
1e0b   006f
1e0c   0075
1e0d   0072
1e0e   0073
1e0f   003a
1e10   004d
1e11   0069
1e12   006e
1e13   0075
1e14   0074
1e15   0065
1e16   0073
1e17   0020
1e18   0000
1e19   0020   dt " ____also pressing the button Up";
1e1a   005f
1e1b   005f
1e1c   005f
1e1d   005f
1e1e   0061
1e1f   006c
1e20   0073
1e21   006f
1e22   0020
1e23   0070
1e24   0072
1e25   0065
1e26   0073
1e27   0073
1e28   0069
1e29   006e
1e2a   0067
1e2b   0020
1e2c   0074
1e2d   0068
1e2e   0065
1e2f   0020
1e30   0062
1e31   0075
1e32   0074
1e33   0074
1e34   006f
1e35   006e
1e36   0020
1e37   0055
1e38   0070
1e39   0000
1e3a   0020   dt " M = Print/Display clock Minutes:Seconds";
1e3b   004d
1e3c   0020
1e3d   003d
1e3e   0020
1e3f   0050
1e40   0072
1e41   0069
1e42   006e
1e43   0074
1e44   002f
1e45   0044
1e46   0069
1e47   0073
1e48   0070
1e49   006c
1e4a   0061
1e4b   0079
1e4c   0020
1e4d   0063
1e4e   006c
1e4f   006f
1e50   0063
1e51   006b
1e52   0020
1e53   004d
1e54   0069
1e55   006e
1e56   0075
1e57   0074
1e58   0065
1e59   0073
1e5a   003a
1e5b   0053
1e5c   0065
1e5d   0063
1e5e   006f
1e5f   006e
1e60   0064
1e61   0073
1e62   0000
1e63   0020   dt " ____also pressing the button Down";
1e64   005f
1e65   005f
1e66   005f
1e67   005f
1e68   0061
1e69   006c
1e6a   0073
1e6b   006f
1e6c   0020
1e6d   0070
1e6e   0072
1e6f   0065
1e70   0073
1e71   0073
1e72   0069
1e73   006e
1e74   0067
1e75   0020
1e76   0074
1e77   0068
1e78   0065
1e79   0020
1e7a   0062
1e7b   0075
1e7c   0074
1e7d   0074
1e7e   006f
1e7f   006e
1e80   0020
1e81   0044
1e82   006f
1e83   0077
1e84   006e
1e85   0000
1e86   0000   dt "";
1e87   0020   dt " r = Read 16 Registers(x0100 to x010F)";
1e88   0072
1e89   0020
1e8a   003d
1e8b   0020
1e8c   0052
1e8d   0065
1e8e   0061
1e8f   0064
1e90   0020
1e91   0031
1e92   0036
1e93   0020
1e94   0052
1e95   0065
1e96   0067
1e97   0069
1e98   0073
1e99   0074
1e9a   0065
1e9b   0072
1e9c   0073
1e9d   0028
1e9e   0078
1e9f   0030
1ea0   0031
1ea1   0030
1ea2   0030
1ea3   0020
1ea4   0074
1ea5   006f
1ea6   0020
1ea7   0078
1ea8   0030
1ea9   0031
1eaa   0030
1eab   0046
1eac   0029
1ead   0000
1eae   0020   dt " reg x0100 TO x0107 = OUTPUTS";
1eaf   0072
1eb0   0065
1eb1   0067
1eb2   0020
1eb3   0078
1eb4   0030
1eb5   0031
1eb6   0030
1eb7   0030
1eb8   0020
1eb9   0054
1eba   004f
1ebb   0020
1ebc   0078
1ebd   0030
1ebe   0031
1ebf   0030
1ec0   0037
1ec1   0020
1ec2   003d
1ec3   0020
1ec4   004f
1ec5   0055
1ec6   0054
1ec7   0050
1ec8   0055
1ec9   0054
1eca   0053
1ecb   0000
1ecc   0020   dt " __0100 = __LED2-LED1";
1ecd   005f
1ece   005f
1ecf   0030
1ed0   0031
1ed1   0030
1ed2   0030
1ed3   0020
1ed4   003d
1ed5   0020
1ed6   005f
1ed7   005f
1ed8   004c
1ed9   0045
1eda   0044
1edb   0032
1edc   002d
1edd   004c
1ede   0045
1edf   0044
1ee0   0031
1ee1   0000
1ee2   0020   dt " __0101 = __0000-LED3";
1ee3   005f
1ee4   005f
1ee5   0030
1ee6   0031
1ee7   0030
1ee8   0031
1ee9   0020
1eea   003d
1eeb   0020
1eec   005f
1eed   005f
1eee   0030
1eef   0030
1ef0   0030
1ef1   0030
1ef2   002d
1ef3   004c
1ef4   0045
1ef5   0044
1ef6   0033
1ef7   0000
1ef8   0000   dt "";
1ef9   0020   dt " reg x0108 TO x010F = INPUTS";
1efa   0072
1efb   0065
1efc   0067
1efd   0020
1efe   0078
1eff   0030
1f00   0031
1f01   0030
1f02   0038
1f03   0020
1f04   0054
1f05   004f
1f06   0020
1f07   0078
1f08   0030
1f09   0031
1f0a   0030
1f0b   0046
1f0c   0020
1f0d   003d
1f0e   0020
1f0f   0049
1f10   004e
1f11   0050
1f12   0055
1f13   0054
1f14   0053
1f15   0000
1f16   0020   dt " __0108 = __0000-DIPSW3";
1f17   005f
1f18   005f
1f19   0030
1f1a   0031
1f1b   0030
1f1c   0038
1f1d   0020
1f1e   003d
1f1f   0020
1f20   005f
1f21   005f
1f22   0030
1f23   0030
1f24   0030
1f25   0030
1f26   002d
1f27   0044
1f28   0049
1f29   0050
1f2a   0053
1f2b   0057
1f2c   0033
1f2d   0000
1f2e   0020   dt " __0109 = DIPSW2-DIPSW1";
1f2f   005f
1f30   005f
1f31   0030
1f32   0031
1f33   0030
1f34   0039
1f35   0020
1f36   003d
1f37   0020
1f38   0044
1f39   0049
1f3a   0050
1f3b   0053
1f3c   0057
1f3d   0032
1f3e   002d
1f3f   0044
1f40   0049
1f41   0050
1f42   0053
1f43   0057
1f44   0031
1f45   0000
1f46   0020   dt " __010A = __0000-BTNs__";
1f47   005f
1f48   005f
1f49   0030
1f4a   0031
1f4b   0030
1f4c   0041
1f4d   0020
1f4e   003d
1f4f   0020
1f50   005f
1f51   005f
1f52   0030
1f53   0030
1f54   0030
1f55   0030
1f56   002d
1f57   0042
1f58   0054
1f59   004e
1f5a   0073
1f5b   005f
1f5c   005f
1f5d   0000
1f5e   0000   dt "";
1f5f   007c   dt "|||||||";
1f60   007c
1f61   007c
1f62   007c
1f63   007c
1f64   007c
1f65   007c
1f66   0000
1f67   0053   dt "Space key will refresh the screen";
1f68   0070
1f69   0061
1f6a   0063
1f6b   0065
1f6c   0020
1f6d   006b
1f6e   0065
1f6f   0079
1f70   0020
1f71   0077
1f72   0069
1f73   006c
1f74   006c
1f75   0020
1f76   0072
1f77   0065
1f78   0066
1f79   0072
1f7a   0065
1f7b   0073
1f7c   0068
1f7d   0020
1f7e   0074
1f7f   0068
1f80   0065
1f81   0020
1f82   0073
1f83   0063
1f84   0072
1f85   0065
1f86   0065
1f87   006e
1f88   0000
1f89   0045   dt "Enter x to exit (previous menu)";
1f8a   006e
1f8b   0074
1f8c   0065
1f8d   0072
1f8e   0020
1f8f   0078
1f90   0020
1f91   0074
1f92   006f
1f93   0020
1f94   0065
1f95   0078
1f96   0069
1f97   0074
1f98   0020
1f99   0028
1f9a   0070
1f9b   0072
1f9c   0065
1f9d   0076
1f9e   0069
1f9f   006f
1fa0   0075
1fa1   0073
1fa2   0020
1fa3   006d
1fa4   0065
1fa5   006e
1fa6   0075
1fa7   0029
1fa8   0000
1fa9   007c   dt "|||||||";
1faa   007c
1fab   007c
1fac   007c
1fad   007c
1fae   007c
1faf   007c
1fb0   0000
1fb1   0003   dw ETX;
1fb2   007c   helps_m: dt "| H E L P |";
1fb3   0020
1fb4   0048
1fb5   0020
1fb6   0045
1fb7   0020
1fb8   004c
1fb9   0020
1fba   0050
1fbb   0020
1fbc   007c
1fbd   0000
1fbe   0020   dt " System setup";
1fbf   0053
1fc0   0079
1fc1   0073
1fc2   0074
1fc3   0065
1fc4   006d
1fc5   0020
1fc6   0073
1fc7   0065
1fc8   0074
1fc9   0075
1fca   0070
1fcb   0000
1fcc   0020   dt " Prints on xTerm";
1fcd   0050
1fce   0072
1fcf   0069
1fd0   006e
1fd1   0074
1fd2   0073
1fd3   0020
1fd4   006f
1fd5   006e
1fd6   0020
1fd7   0078
1fd8   0054
1fd9   0065
1fda   0072
1fdb   006d
1fdc   0000
1fdd   0000   dt "";
1fde   0020   dt " |Set RTC = Real Time Clock";
1fdf   007c
1fe0   0053
1fe1   0065
1fe2   0074
1fe3   0020
1fe4   0052
1fe5   0054
1fe6   0043
1fe7   0020
1fe8   003d
1fe9   0020
1fea   0052
1feb   0065
1fec   0061
1fed   006c
1fee   0020
1fef   0054
1ff0   0069
1ff1   006d
1ff2   0065
1ff3   0020
1ff4   0043
1ff5   006c
1ff6   006f
1ff7   0063
1ff8   006b
1ff9   0000
1ffa   0020   dt " Enter values in Decimal";
1ffb   0045
1ffc   006e
1ffd   0074
1ffe   0065
1fff   0072
2000   0020
2001   0076
2002   0061
2003   006c
2004   0075
2005   0065
2006   0073
2007   0020
2008   0069
2009   006e
200a   0020
200b   0044
200c   0065
200d   0063
200e   0069
200f   006d
2010   0061
2011   006c
2012   0000
2013   0020   dt " if value is not entered, default to zero";
2014   0069
2015   0066
2016   0020
2017   0076
2018   0061
2019   006c
201a   0075
201b   0065
201c   0020
201d   0069
201e   0073
201f   0020
2020   006e
2021   006f
2022   0074
2023   0020
2024   0065
2025   006e
2026   0074
2027   0065
2028   0072
2029   0065
202a   0064
202b   002c
202c   0020
202d   0064
202e   0065
202f   0066
2030   0061
2031   0075
2032   006c
2033   0074
2034   0020
2035   0074
2036   006f
2037   0020
2038   007a
2039   0065
203a   0072
203b   006f
203c   0000
203d   0020   dt " For example: Y=2024, M=3, D=429,H=15, U=30";
203e   0046
203f   006f
2040   0072
2041   0020
2042   0065
2043   0078
2044   0061
2045   006d
2046   0070
2047   006c
2048   0065
2049   003a
204a   0020
204b   0059
204c   003d
204d   0032
204e   0030
204f   0032
2050   0034
2051   002c
2052   0020
2053   004d
2054   003d
2055   0033
2056   002c
2057   0020
2058   0044
2059   003d
205a   0034
205b   0032
205c   0039
205d   002c
205e   0048
205f   003d
2060   0031
2061   0035
2062   002c
2063   0020
2064   0055
2065   003d
2066   0033
2067   0030
2068   0000
2069   005f   dt "___S=0 by default if not entered";
206a   005f
206b   005f
206c   0053
206d   003d
206e   0030
206f   0020
2070   0062
2071   0079
2072   0020
2073   0064
2074   0065
2075   0066
2076   0061
2077   0075
2078   006c
2079   0074
207a   0020
207b   0069
207c   0066
207d   0020
207e   006e
207f   006f
2080   0074
2081   0020
2082   0065
2083   006e
2084   0074
2085   0065
2086   0072
2087   0065
2088   0064
2089   0000
208a   005f   dt "___U are minutes, Hours in 24H format";
208b   005f
208c   005f
208d   0055
208e   0020
208f   0061
2090   0072
2091   0065
2092   0020
2093   006d
2094   0069
2095   006e
2096   0075
2097   0074
2098   0065
2099   0073
209a   002c
209b   0020
209c   0048
209d   006f
209e   0075
209f   0072
20a0   0073
20a1   0020
20a2   0069
20a3   006e
20a4   0020
20a5   0032
20a6   0034
20a7   0048
20a8   0020
20a9   0066
20aa   006f
20ab   0072
20ac   006d
20ad   0061
20ae   0074
20af   0000
20b0   005f   dt "___D=0429 is :";
20b1   005f
20b2   005f
20b3   0044
20b4   003d
20b5   0030
20b6   0034
20b7   0032
20b8   0039
20b9   0020
20ba   0069
20bb   0073
20bc   0020
20bd   003a
20be   0000
20bf   005f   dt "___04 is the day of the week from 0(Mon) to 6(Sun)";
20c0   005f
20c1   005f
20c2   0030
20c3   0034
20c4   0020
20c5   0069
20c6   0073
20c7   0020
20c8   0074
20c9   0068
20ca   0065
20cb   0020
20cc   0064
20cd   0061
20ce   0079
20cf   0020
20d0   006f
20d1   0066
20d2   0020
20d3   0074
20d4   0068
20d5   0065
20d6   0020
20d7   0077
20d8   0065
20d9   0065
20da   006b
20db   0020
20dc   0066
20dd   0072
20de   006f
20df   006d
20e0   0020
20e1   0030
20e2   0028
20e3   004d
20e4   006f
20e5   006e
20e6   0029
20e7   0020
20e8   0074
20e9   006f
20ea   0020
20eb   0036
20ec   0028
20ed   0053
20ee   0075
20ef   006e
20f0   0029
20f1   0000
20f2   005f   dt "___29 date of the Month";
20f3   005f
20f4   005f
20f5   0032
20f6   0039
20f7   0020
20f8   0064
20f9   0061
20fa   0074
20fb   0065
20fc   0020
20fd   006f
20fe   0066
20ff   0020
2100   0074
2101   0068
2102   0065
2103   0020
2104   004d
2105   006f
2106   006e
2107   0074
2108   0068
2109   0000
210a   0000   dt "";
210b   0020   dt " |Read RTC = Real Time Clock";
210c   007c
210d   0052
210e   0065
210f   0061
2110   0064
2111   0020
2112   0052
2113   0054
2114   0043
2115   0020
2116   003d
2117   0020
2118   0052
2119   0065
211a   0061
211b   006c
211c   0020
211d   0054
211e   0069
211f   006d
2120   0065
2121   0020
2122   0043
2123   006c
2124   006f
2125   0063
2126   006b
2127   0000
2128   0020   dt " k = prints and displays clock";
2129   006b
212a   0020
212b   003d
212c   0020
212d   0070
212e   0072
212f   0069
2130   006e
2131   0074
2132   0073
2133   0020
2134   0061
2135   006e
2136   0064
2137   0020
2138   0064
2139   0069
213a   0073
213b   0070
213c   006c
213d   0061
213e   0079
213f   0073
2140   0020
2141   0063
2142   006c
2143   006f
2144   0063
2145   006b
2146   0000
2147   005f   dt "_____switch 8 defines display H:U or U:S";
2148   005f
2149   005f
214a   005f
214b   005f
214c   0073
214d   0077
214e   0069
214f   0074
2150   0063
2151   0068
2152   0020
2153   0038
2154   0020
2155   0064
2156   0065
2157   0066
2158   0069
2159   006e
215a   0065
215b   0073
215c   0020
215d   0064
215e   0069
215f   0073
2160   0070
2161   006c
2162   0061
2163   0079
2164   0020
2165   0048
2166   003a
2167   0055
2168   0020
2169   006f
216a   0072
216b   0020
216c   0055
216d   003a
216e   0053
216f   0000
2170   005f   dt "_____1st bank of the right, left switch";
2171   005f
2172   005f
2173   005f
2174   005f
2175   0031
2176   0073
2177   0074
2178   0020
2179   0062
217a   0061
217b   006e
217c   006b
217d   0020
217e   006f
217f   0066
2180   0020
2181   0074
2182   0068
2183   0065
2184   0020
2185   0072
2186   0069
2187   0067
2188   0068
2189   0074
218a   002c
218b   0020
218c   006c
218d   0065
218e   0066
218f   0074
2190   0020
2191   0073
2192   0077
2193   0069
2194   0074
2195   0063
2196   0068
2197   0000
2198   0000   dt "";
2199   0054   dt "Toggle Reset";
219a   006f
219b   0067
219c   0067
219d   006c
219e   0065
219f   0020
21a0   0052
21a1   0065
21a2   0073
21a3   0065
21a4   0074
21a5   0000
21a6   0020   dt " R = toggle Reset Register GPREG_07 bit0";
21a7   0052
21a8   0020
21a9   003d
21aa   0020
21ab   0074
21ac   006f
21ad   0067
21ae   0067
21af   006c
21b0   0065
21b1   0020
21b2   0052
21b3   0065
21b4   0073
21b5   0065
21b6   0074
21b7   0020
21b8   0052
21b9   0065
21ba   0067
21bb   0069
21bc   0073
21bd   0074
21be   0065
21bf   0072
21c0   0020
21c1   0047
21c2   0050
21c3   0052
21c4   0045
21c5   0047
21c6   005f
21c7   0030
21c8   0037
21c9   0020
21ca   0062
21cb   0069
21cc   0074
21cd   0030
21ce   0000
21cf   005f   dt "_____reset pulse is sent out to CPU and board";
21d0   005f
21d1   005f
21d2   005f
21d3   005f
21d4   0072
21d5   0065
21d6   0073
21d7   0065
21d8   0074
21d9   0020
21da   0070
21db   0075
21dc   006c
21dd   0073
21de   0065
21df   0020
21e0   0069
21e1   0073
21e2   0020
21e3   0073
21e4   0065
21e5   006e
21e6   0074
21e7   0020
21e8   006f
21e9   0075
21ea   0074
21eb   0020
21ec   0074
21ed   006f
21ee   0020
21ef   0043
21f0   0050
21f1   0055
21f2   0020
21f3   0061
21f4   006e
21f5   0064
21f6   0020
21f7   0062
21f8   006f
21f9   0061
21fa   0072
21fb   0064
21fc   0000
21fd   0000   dt "";
21fe   0020   dt " |Set row and column for R and r commands";
21ff   007c
2200   0053
2201   0065
2202   0074
2203   0020
2204   0072
2205   006f
2206   0077
2207   0020
2208   0061
2209   006e
220a   0064
220b   0020
220c   0063
220d   006f
220e   006c
220f   0075
2210   006d
2211   006e
2212   0020
2213   0066
2214   006f
2215   0072
2216   0020
2217   0052
2218   0020
2219   0061
221a   006e
221b   0064
221c   0020
221d   0072
221e   0020
221f   0063
2220   006f
2221   006d
2222   006d
2223   0061
2224   006e
2225   0064
2226   0073
2227   0000
2228   005f   dt "_____decimal number -1 of desired cols/rows ";
2229   005f
222a   005f
222b   005f
222c   005f
222d   0064
222e   0065
222f   0063
2230   0069
2231   006d
2232   0061
2233   006c
2234   0020
2235   006e
2236   0075
2237   006d
2238   0062
2239   0065
223a   0072
223b   0020
223c   002d
223d   0031
223e   0020
223f   006f
2240   0066
2241   0020
2242   0064
2243   0065
2244   0073
2245   0069
2246   0072
2247   0065
2248   0064
2249   0020
224a   0063
224b   006f
224c   006c
224d   0073
224e   002f
224f   0072
2250   006f
2251   0077
2252   0073
2253   0020
2254   0000
2255   0020   dt " c = set column registers";
2256   0063
2257   0020
2258   003d
2259   0020
225a   0073
225b   0065
225c   0074
225d   0020
225e   0063
225f   006f
2260   006c
2261   0075
2262   006d
2263   006e
2264   0020
2265   0072
2266   0065
2267   0067
2268   0069
2269   0073
226a   0074
226b   0065
226c   0072
226d   0073
226e   0000
226f   0020   dt " r = set row ___registers___";
2270   0072
2271   0020
2272   003d
2273   0020
2274   0073
2275   0065
2276   0074
2277   0020
2278   0072
2279   006f
227a   0077
227b   0020
227c   005f
227d   005f
227e   005f
227f   0072
2280   0065
2281   0067
2282   0069
2283   0073
2284   0074
2285   0065
2286   0072
2287   0073
2288   005f
2289   005f
228a   005f
228b   0000
228c   0020   dt " C = set column memory";
228d   0043
228e   0020
228f   003d
2290   0020
2291   0073
2292   0065
2293   0074
2294   0020
2295   0063
2296   006f
2297   006c
2298   0075
2299   006d
229a   006e
229b   0020
229c   006d
229d   0065
229e   006d
229f   006f
22a0   0072
22a1   0079
22a2   0000
22a3   0020   dt " R = set rows __memory";
22a4   0052
22a5   0020
22a6   003d
22a7   0020
22a8   0073
22a9   0065
22aa   0074
22ab   0020
22ac   0072
22ad   006f
22ae   0077
22af   0073
22b0   0020
22b1   005f
22b2   005f
22b3   006d
22b4   0065
22b5   006d
22b6   006f
22b7   0072
22b8   0079
22b9   0000
22ba   0020   dt " |Set rows for variable dump command";
22bb   007c
22bc   0053
22bd   0065
22be   0074
22bf   0020
22c0   0072
22c1   006f
22c2   0077
22c3   0073
22c4   0020
22c5   0066
22c6   006f
22c7   0072
22c8   0020
22c9   0076
22ca   0061
22cb   0072
22cc   0069
22cd   0061
22ce   0062
22cf   006c
22d0   0065
22d1   0020
22d2   0064
22d3   0075
22d4   006d
22d5   0070
22d6   0020
22d7   0063
22d8   006f
22d9   006d
22da   006d
22db   0061
22dc   006e
22dd   0064
22de   0000
22df   005f   dt "_____decimal number -1 of desired rows";
22e0   005f
22e1   005f
22e2   005f
22e3   005f
22e4   0064
22e5   0065
22e6   0063
22e7   0069
22e8   006d
22e9   0061
22ea   006c
22eb   0020
22ec   006e
22ed   0075
22ee   006d
22ef   0062
22f0   0065
22f1   0072
22f2   0020
22f3   002d
22f4   0031
22f5   0020
22f6   006f
22f7   0066
22f8   0020
22f9   0064
22fa   0065
22fb   0073
22fc   0069
22fd   0072
22fe   0065
22ff   0064
2300   0020
2301   0072
2302   006f
2303   0077
2304   0073
2305   0000
2306   0020   dt " v = det debug row, column is fixed";
2307   0076
2308   0020
2309   003d
230a   0020
230b   0064
230c   0065
230d   0074
230e   0020
230f   0064
2310   0065
2311   0062
2312   0075
2313   0067
2314   0020
2315   0072
2316   006f
2317   0077
2318   002c
2319   0020
231a   0063
231b   006f
231c   006c
231d   0075
231e   006d
231f   006e
2320   0020
2321   0069
2322   0073
2323   0020
2324   0066
2325   0069
2326   0078
2327   0065
2328   0064
2329   0000
232a   007c   dt "|||||||";
232b   007c
232c   007c
232d   007c
232e   007c
232f   007c
2330   007c
2331   0000
2332   0053   dt "Space key will refresh the screen";
2333   0070
2334   0061
2335   0063
2336   0065
2337   0020
2338   006b
2339   0065
233a   0079
233b   0020
233c   0077
233d   0069
233e   006c
233f   006c
2340   0020
2341   0072
2342   0065
2343   0066
2344   0072
2345   0065
2346   0073
2347   0068
2348   0020
2349   0074
234a   0068
234b   0065
234c   0020
234d   0073
234e   0063
234f   0072
2350   0065
2351   0065
2352   006e
2353   0000
2354   0045   dt "Enter x to exit (previous menu)";
2355   006e
2356   0074
2357   0065
2358   0072
2359   0020
235a   0078
235b   0020
235c   0074
235d   006f
235e   0020
235f   0065
2360   0078
2361   0069
2362   0074
2363   0020
2364   0028
2365   0070
2366   0072
2367   0065
2368   0076
2369   0069
236a   006f
236b   0075
236c   0073
236d   0020
236e   006d
236f   0065
2370   006e
2371   0075
2372   0029
2373   0000
2374   007c   dt "|||||||";
2375   007c
2376   007c
2377   007c
2378   007c
2379   007c
237a   007c
237b   0000
237c   0003   dw ETX;
237d   007c   helpd_m: dt "| H E L P |";
237e   0020
237f   0048
2380   0020
2381   0045
2382   0020
2383   004c
2384   0020
2385   0050
2386   0020
2387   007c
2388   0000
2389   007c   dt "| Memory Commands";
238a   0020
238b   004d
238c   0065
238d   006d
238e   006f
238f   0072
2390   0079
2391   0020
2392   0043
2393   006f
2394   006d
2395   006d
2396   0061
2397   006e
2398   0064
2399   0073
239a   0000
239b   0020   dt " A = Memory access (toggle)";
239c   0041
239d   0020
239e   003d
239f   0020
23a0   004d
23a1   0065
23a2   006d
23a3   006f
23a4   0072
23a5   0079
23a6   0020
23a7   0061
23a8   0063
23a9   0063
23aa   0065
23ab   0073
23ac   0073
23ad   0020
23ae   0028
23af   0074
23b0   006f
23b1   0067
23b2   0067
23b3   006c
23b4   0065
23b5   0029
23b6   0000
23b7   005f   dt "____internal or external memory access (toggle)";
23b8   005f
23b9   005f
23ba   005f
23bb   0069
23bc   006e
23bd   0074
23be   0065
23bf   0072
23c0   006e
23c1   0061
23c2   006c
23c3   0020
23c4   006f
23c5   0072
23c6   0020
23c7   0065
23c8   0078
23c9   0074
23ca   0065
23cb   0072
23cc   006e
23cd   0061
23ce   006c
23cf   0020
23d0   006d
23d1   0065
23d2   006d
23d3   006f
23d4   0072
23d5   0079
23d6   0020
23d7   0061
23d8   0063
23d9   0063
23da   0065
23db   0073
23dc   0073
23dd   0020
23de   0028
23df   0074
23e0   006f
23e1   0067
23e2   0067
23e3   006c
23e4   0065
23e5   0029
23e6   0000
23e7   005f   dt "____board must support DRAM/SDRAM/SRAM";
23e8   005f
23e9   005f
23ea   005f
23eb   0062
23ec   006f
23ed   0061
23ee   0072
23ef   0064
23f0   0020
23f1   006d
23f2   0075
23f3   0073
23f4   0074
23f5   0020
23f6   0073
23f7   0075
23f8   0070
23f9   0070
23fa   006f
23fb   0072
23fc   0074
23fd   0020
23fe   0044
23ff   0052
2400   0041
2401   004d
2402   002f
2403   0053
2404   0044
2405   0052
2406   0041
2407   004d
2408   002f
2409   0053
240a   0052
240b   0041
240c   004d
240d   0000
240e   0020   dt " B = Memory byte mode (toggle)";
240f   0042
2410   0020
2411   003d
2412   0020
2413   004d
2414   0065
2415   006d
2416   006f
2417   0072
2418   0079
2419   0020
241a   0062
241b   0079
241c   0074
241d   0065
241e   0020
241f   006d
2420   006f
2421   0064
2422   0065
2423   0020
2424   0028
2425   0074
2426   006f
2427   0067
2428   0067
2429   006c
242a   0065
242b   0029
242c   0000
242d   005f   dt "____byte or word memory access (toggle)";
242e   005f
242f   005f
2430   005f
2431   0062
2432   0079
2433   0074
2434   0065
2435   0020
2436   006f
2437   0072
2438   0020
2439   0077
243a   006f
243b   0072
243c   0064
243d   0020
243e   006d
243f   0065
2440   006d
2441   006f
2442   0072
2443   0079
2444   0020
2445   0061
2446   0063
2447   0063
2448   0065
2449   0073
244a   0073
244b   0020
244c   0028
244d   0074
244e   006f
244f   0067
2450   0067
2451   006c
2452   0065
2453   0029
2454   0000
2455   0020   dt " m = Memory read/write: (MEM ADDR)";
2456   006d
2457   0020
2458   003d
2459   0020
245a   004d
245b   0065
245c   006d
245d   006f
245e   0072
245f   0079
2460   0020
2461   0072
2462   0065
2463   0061
2464   0064
2465   002f
2466   0077
2467   0072
2468   0069
2469   0074
246a   0065
246b   003a
246c   0020
246d   0028
246e   004d
246f   0045
2470   004d
2471   0020
2472   0041
2473   0044
2474   0044
2475   0052
2476   0029
2477   0000
2478   005f   dt "___[m]addr[RET] read and set address" ;
2479   005f
247a   005f
247b   005b
247c   006d
247d   005d
247e   0061
247f   0064
2480   0064
2481   0072
2482   005b
2483   0052
2484   0045
2485   0054
2486   005d
2487   0020
2488   0072
2489   0065
248a   0061
248b   0064
248c   0020
248d   0061
248e   006e
248f   0064
2490   0020
2491   0073
2492   0065
2493   0074
2494   0020
2495   0061
2496   0064
2497   0064
2498   0072
2499   0065
249a   0073
249b   0073
249c   0000
249d   005f   dt "___[m]addr,val[RET] write value" ;
249e   005f
249f   005f
24a0   005b
24a1   006d
24a2   005d
24a3   0061
24a4   0064
24a5   0064
24a6   0072
24a7   002c
24a8   0076
24a9   0061
24aa   006c
24ab   005b
24ac   0052
24ad   0045
24ae   0054
24af   005d
24b0   0020
24b1   0077
24b2   0072
24b3   0069
24b4   0074
24b5   0065
24b6   0020
24b7   0076
24b8   0061
24b9   006c
24ba   0075
24bb   0065
24bc   0000
24bd   0020   dt " d = dump memory from address 0";
24be   0064
24bf   0020
24c0   003d
24c1   0020
24c2   0064
24c3   0075
24c4   006d
24c5   0070
24c6   0020
24c7   006d
24c8   0065
24c9   006d
24ca   006f
24cb   0072
24cc   0079
24cd   0020
24ce   0066
24cf   0072
24d0   006f
24d1   006d
24d2   0020
24d3   0061
24d4   0064
24d5   0064
24d6   0072
24d7   0065
24d8   0073
24d9   0073
24da   0020
24db   0030
24dc   0000
24dd   0020   dt " n = next N memory rows from last address";
24de   006e
24df   0020
24e0   003d
24e1   0020
24e2   006e
24e3   0065
24e4   0078
24e5   0074
24e6   0020
24e7   004e
24e8   0020
24e9   006d
24ea   0065
24eb   006d
24ec   006f
24ed   0072
24ee   0079
24ef   0020
24f0   0072
24f1   006f
24f2   0077
24f3   0073
24f4   0020
24f5   0066
24f6   0072
24f7   006f
24f8   006d
24f9   0020
24fa   006c
24fb   0061
24fc   0073
24fd   0074
24fe   0020
24ff   0061
2500   0064
2501   0064
2502   0072
2503   0065
2504   0073
2505   0073
2506   0000
2507   0020   dt " f = fill memory with value + increment";
2508   0066
2509   0020
250a   003d
250b   0020
250c   0066
250d   0069
250e   006c
250f   006c
2510   0020
2511   006d
2512   0065
2513   006d
2514   006f
2515   0072
2516   0079
2517   0020
2518   0077
2519   0069
251a   0074
251b   0068
251c   0020
251d   0076
251e   0061
251f   006c
2520   0075
2521   0065
2522   0020
2523   002b
2524   0020
2525   0069
2526   006e
2527   0063
2528   0072
2529   0065
252a   006d
252b   0065
252c   006e
252d   0074
252e   0000
252f   005f   dt "____addr,value = aaaa,vvvv (comma or space)";
2530   005f
2531   005f
2532   005f
2533   0061
2534   0064
2535   0064
2536   0072
2537   002c
2538   0076
2539   0061
253a   006c
253b   0075
253c   0065
253d   0020
253e   003d
253f   0020
2540   0061
2541   0061
2542   0061
2543   0061
2544   002c
2545   0076
2546   0076
2547   0076
2548   0076
2549   0020
254a   0028
254b   0063
254c   006f
254d   006d
254e   006d
254f   0061
2550   0020
2551   006f
2552   0072
2553   0020
2554   0073
2555   0070
2556   0061
2557   0063
2558   0065
2559   0029
255a   0000
255b   005f   dt "____Enter Hex number: 1a3b,0055 [RET]";
255c   005f
255d   005f
255e   005f
255f   0045
2560   006e
2561   0074
2562   0065
2563   0072
2564   0020
2565   0048
2566   0065
2567   0078
2568   0020
2569   006e
256a   0075
256b   006d
256c   0062
256d   0065
256e   0072
256f   003a
2570   0020
2571   0031
2572   0061
2573   0033
2574   0062
2575   002c
2576   0030
2577   0030
2578   0035
2579   0035
257a   0020
257b   005b
257c   0052
257d   0045
257e   0054
257f   005d
2580   0000
2581   0020   dt " l = memory length and increment";
2582   006c
2583   0020
2584   003d
2585   0020
2586   006d
2587   0065
2588   006d
2589   006f
258a   0072
258b   0079
258c   0020
258d   006c
258e   0065
258f   006e
2590   0067
2591   0074
2592   0068
2593   0020
2594   0061
2595   006e
2596   0064
2597   0020
2598   0069
2599   006e
259a   0063
259b   0072
259c   0065
259d   006d
259e   0065
259f   006e
25a0   0074
25a1   0000
25a2   005f   dt "____length,increment = llll,iiii (comma or space)";
25a3   005f
25a4   005f
25a5   005f
25a6   006c
25a7   0065
25a8   006e
25a9   0067
25aa   0074
25ab   0068
25ac   002c
25ad   0069
25ae   006e
25af   0063
25b0   0072
25b1   0065
25b2   006d
25b3   0065
25b4   006e
25b5   0074
25b6   0020
25b7   003d
25b8   0020
25b9   006c
25ba   006c
25bb   006c
25bc   006c
25bd   002c
25be   0069
25bf   0069
25c0   0069
25c1   0069
25c2   0020
25c3   0028
25c4   0063
25c5   006f
25c6   006d
25c7   006d
25c8   0061
25c9   0020
25ca   006f
25cb   0072
25cc   0020
25cd   0073
25ce   0070
25cf   0061
25d0   0063
25d1   0065
25d2   0029
25d3   0000
25d4   005f   dt "____aaaa,vvvv,llll,iiii mandatory 4 digits";
25d5   005f
25d6   005f
25d7   005f
25d8   0061
25d9   0061
25da   0061
25db   0061
25dc   002c
25dd   0076
25de   0076
25df   0076
25e0   0076
25e1   002c
25e2   006c
25e3   006c
25e4   006c
25e5   006c
25e6   002c
25e7   0069
25e8   0069
25e9   0069
25ea   0069
25eb   0020
25ec   006d
25ed   0061
25ee   006e
25ef   0064
25f0   0061
25f1   0074
25f2   006f
25f3   0072
25f4   0079
25f5   0020
25f6   0034
25f7   0020
25f8   0064
25f9   0069
25fa   0067
25fb   0069
25fc   0074
25fd   0073
25fe   0000
25ff   005f   dt "____Enter Hex number: 1000,0002";
2600   005f
2601   005f
2602   005f
2603   0045
2604   006e
2605   0074
2606   0065
2607   0072
2608   0020
2609   0048
260a   0065
260b   0078
260c   0020
260d   006e
260e   0075
260f   006d
2610   0062
2611   0065
2612   0072
2613   003a
2614   0020
2615   0031
2616   0030
2617   0030
2618   0030
2619   002c
261a   0030
261b   0030
261c   0030
261d   0032
261e   0000
261f   0000   dt "";
2620   007c   dt "| Register Commands";
2621   0020
2622   0052
2623   0065
2624   0067
2625   0069
2626   0073
2627   0074
2628   0065
2629   0072
262a   0020
262b   0043
262c   006f
262d   006d
262e   006d
262f   0061
2630   006e
2631   0064
2632   0073
2633   0000
2634   007c   dt "| Enter numbers in Hexadecimal";
2635   0020
2636   0045
2637   006e
2638   0074
2639   0065
263a   0072
263b   0020
263c   006e
263d   0075
263e   006d
263f   0062
2640   0065
2641   0072
2642   0073
2643   0020
2644   0069
2645   006e
2646   0020
2647   0048
2648   0065
2649   0078
264a   0061
264b   0064
264c   0065
264d   0063
264e   0069
264f   006d
2650   0061
2651   006c
2652   0000
2653   0020   dt " b = set BASE ADDR";
2654   0062
2655   0020
2656   003d
2657   0020
2658   0073
2659   0065
265a   0074
265b   0020
265c   0042
265d   0041
265e   0053
265f   0045
2660   0020
2661   0041
2662   0044
2663   0044
2664   0052
2665   0000
2666   0020   dt " r = Read 16 Registers(BASE ADDR + 0 to F)";
2667   0072
2668   0020
2669   003d
266a   0020
266b   0052
266c   0065
266d   0061
266e   0064
266f   0020
2670   0031
2671   0036
2672   0020
2673   0052
2674   0065
2675   0067
2676   0069
2677   0073
2678   0074
2679   0065
267a   0072
267b   0073
267c   0028
267d   0042
267e   0041
267f   0053
2680   0045
2681   0020
2682   0041
2683   0044
2684   0044
2685   0052
2686   0020
2687   002b
2688   0020
2689   0030
268a   0020
268b   0074
268c   006f
268d   0020
268e   0046
268f   0029
2690   0000
2691   0020   dt " R = Read I/O Registers(0100-013F) defined at top level";
2692   0052
2693   0020
2694   003d
2695   0020
2696   0052
2697   0065
2698   0061
2699   0064
269a   0020
269b   0049
269c   002f
269d   004f
269e   0020
269f   0052
26a0   0065
26a1   0067
26a2   0069
26a3   0073
26a4   0074
26a5   0065
26a6   0072
26a7   0073
26a8   0028
26a9   0030
26aa   0031
26ab   0030
26ac   0030
26ad   002d
26ae   0030
26af   0031
26b0   0033
26b1   0046
26b2   0029
26b3   0020
26b4   0064
26b5   0065
26b6   0066
26b7   0069
26b8   006e
26b9   0065
26ba   0064
26bb   0020
26bc   0061
26bd   0074
26be   0020
26bf   0074
26c0   006f
26c1   0070
26c2   0020
26c3   006c
26c4   0065
26c5   0076
26c6   0065
26c7   006c
26c8   0000
26c9   0020   dt " w = Write Output Port/Register: (full 16 bits address)";
26ca   0077
26cb   0020
26cc   003d
26cd   0020
26ce   0057
26cf   0072
26d0   0069
26d1   0074
26d2   0065
26d3   0020
26d4   004f
26d5   0075
26d6   0074
26d7   0070
26d8   0075
26d9   0074
26da   0020
26db   0050
26dc   006f
26dd   0072
26de   0074
26df   002f
26e0   0052
26e1   0065
26e2   0067
26e3   0069
26e4   0073
26e5   0074
26e6   0065
26e7   0072
26e8   003a
26e9   0020
26ea   0028
26eb   0066
26ec   0075
26ed   006c
26ee   006c
26ef   0020
26f0   0031
26f1   0036
26f2   0020
26f3   0062
26f4   0069
26f5   0074
26f6   0073
26f7   0020
26f8   0061
26f9   0064
26fa   0064
26fb   0072
26fc   0065
26fd   0073
26fe   0073
26ff   0029
2700   0000
2701   005f   dt "____[w]addr[RET] read port";
2702   005f
2703   005f
2704   005f
2705   005b
2706   0077
2707   005d
2708   0061
2709   0064
270a   0064
270b   0072
270c   005b
270d   0052
270e   0045
270f   0054
2710   005d
2711   0020
2712   0072
2713   0065
2714   0061
2715   0064
2716   0020
2717   0070
2718   006f
2719   0072
271a   0074
271b   0000
271c   005f   dt "____[w]addr,val[RET] delimeter comma";
271d   005f
271e   005f
271f   005f
2720   005b
2721   0077
2722   005d
2723   0061
2724   0064
2725   0064
2726   0072
2727   002c
2728   0076
2729   0061
272a   006c
272b   005b
272c   0052
272d   0045
272e   0054
272f   005d
2730   0020
2731   0064
2732   0065
2733   006c
2734   0069
2735   006d
2736   0065
2737   0074
2738   0065
2739   0072
273a   0020
273b   0063
273c   006f
273d   006d
273e   006d
273f   0061
2740   0000
2741   005f   dt "____[w]addr val[RET] delimiter space";
2742   005f
2743   005f
2744   005f
2745   005b
2746   0077
2747   005d
2748   0061
2749   0064
274a   0064
274b   0072
274c   0020
274d   0076
274e   0061
274f   006c
2750   005b
2751   0052
2752   0045
2753   0054
2754   005d
2755   0020
2756   0064
2757   0065
2758   006c
2759   0069
275a   006d
275b   0069
275c   0074
275d   0065
275e   0072
275f   0020
2760   0073
2761   0070
2762   0061
2763   0063
2764   0065
2765   0000
2766   005f   dt "____[w]addrnval[RET] one's complement, delimiter n";
2767   005f
2768   005f
2769   005f
276a   005b
276b   0077
276c   005d
276d   0061
276e   0064
276f   0064
2770   0072
2771   006e
2772   0076
2773   0061
2774   006c
2775   005b
2776   0052
2777   0045
2778   0054
2779   005d
277a   0020
277b   006f
277c   006e
277d   0065
277e   0027
277f   0073
2780   0020
2781   0063
2782   006f
2783   006d
2784   0070
2785   006c
2786   0065
2787   006d
2788   0065
2789   006e
278a   0074
278b   002c
278c   0020
278d   0064
278e   0065
278f   006c
2790   0069
2791   006d
2792   0069
2793   0074
2794   0065
2795   0072
2796   0020
2797   006e
2798   0000
2799   005f   dt "____[w]addr-val[RET] two's complement, delimiter -";
279a   005f
279b   005f
279c   005f
279d   005b
279e   0077
279f   005d
27a0   0061
27a1   0064
27a2   0064
27a3   0072
27a4   002d
27a5   0076
27a6   0061
27a7   006c
27a8   005b
27a9   0052
27aa   0045
27ab   0054
27ac   005d
27ad   0020
27ae   0074
27af   0077
27b0   006f
27b1   0027
27b2   0073
27b3   0020
27b4   0063
27b5   006f
27b6   006d
27b7   0070
27b8   006c
27b9   0065
27ba   006d
27bb   0065
27bc   006e
27bd   0074
27be   002c
27bf   0020
27c0   0064
27c1   0065
27c2   006c
27c3   0069
27c4   006d
27c5   0069
27c6   0074
27c7   0065
27c8   0072
27c9   0020
27ca   002d
27cb   0000
27cc   0000   dt "";
27cd   007c   dt "| Bit manipulations";
27ce   0020
27cf   0042
27d0   0069
27d1   0074
27d2   0020
27d3   006d
27d4   0061
27d5   006e
27d6   0069
27d7   0070
27d8   0075
27d9   006c
27da   0061
27db   0074
27dc   0069
27dd   006f
27de   006e
27df   0073
27e0   0000
27e1   005b   dt "[s/c/t/i]regaddr,bit[RET] (bit=0 to F)";
27e2   0073
27e3   002f
27e4   0063
27e5   002f
27e6   0074
27e7   002f
27e8   0069
27e9   005d
27ea   0072
27eb   0065
27ec   0067
27ed   0061
27ee   0064
27ef   0064
27f0   0072
27f1   002c
27f2   0062
27f3   0069
27f4   0074
27f5   005b
27f6   0052
27f7   0045
27f8   0054
27f9   005d
27fa   0020
27fb   0028
27fc   0062
27fd   0069
27fe   0074
27ff   003d
2800   0030
2801   0020
2802   0074
2803   006f
2804   0020
2805   0046
2806   0029
2807   0000
2808   005f   dt "___Set reg bit: s100,a[RET] reg 0100 bit 10 (hex A)";
2809   005f
280a   005f
280b   0053
280c   0065
280d   0074
280e   0020
280f   0072
2810   0065
2811   0067
2812   0020
2813   0062
2814   0069
2815   0074
2816   003a
2817   0020
2818   0073
2819   0031
281a   0030
281b   0030
281c   002c
281d   0061
281e   005b
281f   0052
2820   0045
2821   0054
2822   005d
2823   0020
2824   0072
2825   0065
2826   0067
2827   0020
2828   0030
2829   0031
282a   0030
282b   0030
282c   0020
282d   0062
282e   0069
282f   0074
2830   0020
2831   0031
2832   0030
2833   0020
2834   0028
2835   0068
2836   0065
2837   0078
2838   0020
2839   0041
283a   0029
283b   0000
283c   005f   dt "___Clear reg bit: c0120,f[RET] reg 0120 bit 15 (hex F)";
283d   005f
283e   005f
283f   0043
2840   006c
2841   0065
2842   0061
2843   0072
2844   0020
2845   0072
2846   0065
2847   0067
2848   0020
2849   0062
284a   0069
284b   0074
284c   003a
284d   0020
284e   0063
284f   0030
2850   0031
2851   0032
2852   0030
2853   002c
2854   0066
2855   005b
2856   0052
2857   0045
2858   0054
2859   005d
285a   0020
285b   0072
285c   0065
285d   0067
285e   0020
285f   0030
2860   0031
2861   0032
2862   0030
2863   0020
2864   0062
2865   0069
2866   0074
2867   0020
2868   0031
2869   0035
286a   0020
286b   0028
286c   0068
286d   0065
286e   0078
286f   0020
2870   0046
2871   0029
2872   0000
2873   005f   dt "___Toggle reg bit: t6,8[RET] reg 0006 bit 8";
2874   005f
2875   005f
2876   0054
2877   006f
2878   0067
2879   0067
287a   006c
287b   0065
287c   0020
287d   0072
287e   0065
287f   0067
2880   0020
2881   0062
2882   0069
2883   0074
2884   003a
2885   0020
2886   0074
2887   0036
2888   002c
2889   0038
288a   005b
288b   0052
288c   0045
288d   0054
288e   005d
288f   0020
2890   0072
2891   0065
2892   0067
2893   0020
2894   0030
2895   0030
2896   0030
2897   0036
2898   0020
2899   0062
289a   0069
289b   0074
289c   0020
289d   0038
289e   0000
289f   005f   dt "___Pulse reg bit: p001f,0[RET] reg 001f bit 0";
28a0   005f
28a1   005f
28a2   0050
28a3   0075
28a4   006c
28a5   0073
28a6   0065
28a7   0020
28a8   0072
28a9   0065
28aa   0067
28ab   0020
28ac   0062
28ad   0069
28ae   0074
28af   003a
28b0   0020
28b1   0070
28b2   0030
28b3   0030
28b4   0031
28b5   0066
28b6   002c
28b7   0030
28b8   005b
28b9   0052
28ba   0045
28bb   0054
28bc   005d
28bd   0020
28be   0072
28bf   0065
28c0   0067
28c1   0020
28c2   0030
28c3   0030
28c4   0031
28c5   0066
28c6   0020
28c7   0062
28c8   0069
28c9   0074
28ca   0020
28cb   0030
28cc   0000
28cd   005b   dt "[a/o/e] regaddr,mask[RET]";
28ce   0061
28cf   002f
28d0   006f
28d1   002f
28d2   0065
28d3   005d
28d4   0020
28d5   0072
28d6   0065
28d7   0067
28d8   0061
28d9   0064
28da   0064
28db   0072
28dc   002c
28dd   006d
28de   0061
28df   0073
28e0   006b
28e1   005b
28e2   0052
28e3   0045
28e4   0054
28e5   005d
28e6   0000
28e7   005f   dt "___a0100,0055, value of 0100 and 0055 hex";
28e8   005f
28e9   005f
28ea   0061
28eb   0030
28ec   0031
28ed   0030
28ee   0030
28ef   002c
28f0   0030
28f1   0030
28f2   0035
28f3   0035
28f4   002c
28f5   0020
28f6   0076
28f7   0061
28f8   006c
28f9   0075
28fa   0065
28fb   0020
28fc   006f
28fd   0066
28fe   0020
28ff   0030
2900   0031
2901   0030
2902   0030
2903   0020
2904   0061
2905   006e
2906   0064
2907   0020
2908   0030
2909   0030
290a   0035
290b   0035
290c   0020
290d   0068
290e   0065
290f   0078
2910   0000
2911   005f   dt "___o0120,ff00, value of 0120 or FF00 hex";
2912   005f
2913   005f
2914   006f
2915   0030
2916   0031
2917   0032
2918   0030
2919   002c
291a   0066
291b   0066
291c   0030
291d   0030
291e   002c
291f   0020
2920   0076
2921   0061
2922   006c
2923   0075
2924   0065
2925   0020
2926   006f
2927   0066
2928   0020
2929   0030
292a   0031
292b   0032
292c   0030
292d   0020
292e   006f
292f   0072
2930   0020
2931   0046
2932   0046
2933   0030
2934   0030
2935   0020
2936   0068
2937   0065
2938   0078
2939   0000
293a   005f   dt "___e0130,55aa, value of 0130 xor 55AA hex";
293b   005f
293c   005f
293d   0065
293e   0030
293f   0031
2940   0033
2941   0030
2942   002c
2943   0035
2944   0035
2945   0061
2946   0061
2947   002c
2948   0020
2949   0076
294a   0061
294b   006c
294c   0075
294d   0065
294e   0020
294f   006f
2950   0066
2951   0020
2952   0030
2953   0031
2954   0033
2955   0030
2956   0020
2957   0078
2958   006f
2959   0072
295a   0020
295b   0035
295c   0035
295d   0041
295e   0041
295f   0020
2960   0068
2961   0065
2962   0078
2963   0000
2964   0000   dt "";
2965   0020   dt " I = Enable/Disable Interrupts, 0=disable, 1=enable";
2966   0049
2967   0020
2968   003d
2969   0020
296a   0045
296b   006e
296c   0061
296d   0062
296e   006c
296f   0065
2970   002f
2971   0044
2972   0069
2973   0073
2974   0061
2975   0062
2976   006c
2977   0065
2978   0020
2979   0049
297a   006e
297b   0074
297c   0065
297d   0072
297e   0072
297f   0075
2980   0070
2981   0074
2982   0073
2983   002c
2984   0020
2985   0030
2986   003d
2987   0064
2988   0069
2989   0073
298a   0061
298b   0062
298c   006c
298d   0065
298e   002c
298f   0020
2990   0031
2991   003d
2992   0065
2993   006e
2994   0061
2995   0062
2996   006c
2997   0065
2998   0000
2999   007c   dt "|||||||";
299a   007c
299b   007c
299c   007c
299d   007c
299e   007c
299f   007c
29a0   0000
29a1   0020   dt " Space key will refresh the screen";
29a2   0053
29a3   0070
29a4   0061
29a5   0063
29a6   0065
29a7   0020
29a8   006b
29a9   0065
29aa   0079
29ab   0020
29ac   0077
29ad   0069
29ae   006c
29af   006c
29b0   0020
29b1   0072
29b2   0065
29b3   0066
29b4   0072
29b5   0065
29b6   0073
29b7   0068
29b8   0020
29b9   0074
29ba   0068
29bb   0065
29bc   0020
29bd   0073
29be   0063
29bf   0072
29c0   0065
29c1   0065
29c2   006e
29c3   0000
29c4   0020   dt " Enter x to exit (previous menu)";
29c5   0045
29c6   006e
29c7   0074
29c8   0065
29c9   0072
29ca   0020
29cb   0078
29cc   0020
29cd   0074
29ce   006f
29cf   0020
29d0   0065
29d1   0078
29d2   0069
29d3   0074
29d4   0020
29d5   0028
29d6   0070
29d7   0072
29d8   0065
29d9   0076
29da   0069
29db   006f
29dc   0075
29dd   0073
29de   0020
29df   006d
29e0   0065
29e1   006e
29e2   0075
29e3   0029
29e4   0000
29e5   007c   dt "|||||||";
29e6   007c
29e7   007c
29e8   007c
29e9   007c
29ea   007c
29eb   007c
29ec   0000
29ed   0003   dw ETX;
29ee   0849   apptab: dw d7s_adc0 ; 
29ef   0856   dw d7s_adc1 ; 
29f0   0863   dw d7s_adc2 ; 
29f1   086d   dw d7s_adc3 ; 
29f2   0877   dw d7s_adc4 ; 
29f3   0830   dw d7s_clock ; 
29f4   08d9   dw walking ; 
29f5   082f   dw nothing ; 
29f6   29f6   zend_code: dw zend_code;
29f7   0000   memptr: dw 0 ; 
29f8   0000   memptrlast: dw 0 ; 
29f9   0001   pattern1: dw 1 ; 
29fa   0100   an_cnt: dw 'h0100 ; 
29fb   0000   digit1: dw 0 ; 
29fc   0000   digit2: dw 0 ; 
29fd   0000   digitdp: dw 0 ; 
29fe   0000   hex1val: dw 0 ; 
29ff   0000   hex2val: dw 0 ; 
2a00   0000   cvalue1: dw 0 ; 
2a01   0000   cvalue2: dw 0 ; 
2a02   0000   inpchar: dw 0 ; 
2a03   0000   inpaddr: dw 0 ; 
2a04   0000   outdata: dw 0 ; 
2a05   0000   uartstat: dw 0 ; 
2a06   0000   pattern2: dw 0 ; 
2a07   0077   bitop: dw "w" ;
2a08   0000   delimeter: dw 0 ;
2a09   0000   temp0: dw 0 ; 
2a0a   0000   memode: dw 0 ; 
2a0b   0000   memacc: dw 0 ; 
2a0c   0000   memop: dw 0 ; 
2a0d   0100   regptr: dw BASEREGIO ; 
2a0e   0100   iregptr: dw IBASEREGIO ; 
2a0f   2a90   buff_addr: dw tempvar1 ; 
2a10   000f   buff_len: dw 15 ; 
2a11   0000   buff_addrx: dw 0 ;
2a12   0000   buff_value: dw 0 ;
2a13   0000   buff_inc: dw 0 ;
2a14   0003   r_rows: dw 3 ; 
2a15   000f   r_cols: dw 15 ; 
2a16   0000   dw 0 ; 
2a17   0000   tmr1msec: dw 0 ; 
2a18   0064   tmr1value: dw 100 ; 
2a19   0001   irqmask: dw 1 ; 
2a1a   0c8a   ssm_pst: dw kpst00 ; 
2a1b   0c8a   ssm_lst: dw kpst00 ; 
2a1c   0827   pjump: dw myapp ; 
2a1d   0007   m_rows: dw 7 ; 
2a1e   0007   m_cols: dw 7 ; 
2a1f   2024   tmr1year: dw YEAR ; 
2a20   0004   tmr1month: dw MONTH ; 
2a21   0123   tmr1date: dw DATE ; 
2a22   0000   tmr1hour: dw HOUR ; 
2a23   0000   tmr1min: dw MINUTE ; 
2a24   0000   tmr1sec: dw SECONDS ; 
2a25   2024   leapyear: dw YEAR ; 
2a26   0001   myapp_val: dw 1 ;
2a27   000f   dbugrows: dw 15 ; 
2a48   0001   dec2hextab: dw 1,10,100,1000,0,0,0,0;
2a49   000a
2a4a   0064
2a4b   03e8
2a4c   0000
2a4d   0000
2a4e   0000
2a4f   0000
2b10   2ad0   zend_ram: dw stack ;
3f00   0046   cli ; 
3f01   0000   nop ; 
3f02   043f   uport f4 ; 
3f03   073f   boot_p: uport f7 ; 
3f04   0121   ldrv r1,"<" ; 
3f05   003c
3f06   1a35   outpp r1,pA,0 ; 
3f07   0000
3f08   b133   boot_ch: inpp r1,pB ; 
3f09   010b   andv r1,RXDVLD ; 
3f0a   0080
3f0b   1037   bra z,boot_ch ; 
3f0c   fffc
3f0d   a133   inpp r1,pA ; 
3f0e   010b   andv r1,'h0FF ; 
3f0f   00ff
3f10   1113   cmprv r1,"#" ; 
3f11   0023
3f12   1037   bra e,boot_fh ; 
3f13   0007
3f14   1113   cmprv r1,ESC ; 
3f15   001b
3f16   9037   bra ne,boot_ch ; 
3f17   fff1
3f18   0039   jmp end_boot ; 
3f19   3f55
3f1a   073e   boot_fh: uflag f7 ; 
3f1b   873f   uport t7 ; 
3f1c   012e   boot_p0: ldpv p1,0 ;
3f1d   0000
3f1e   021f   boot_p1: ldcv c2,3 ;
3f1f   0003
3f20   220e   xor r2,r2 ; 
3f21   0217   boot_p2: shl4 r2 ;
3f22   b133   boot_p3: inpp r1,pB ; 
3f23   010b   andv r1,RXDVLD ; 
3f24   0080
3f25   1037   bra z,boot_p3 ; 
3f26   fffc
3f27   a133   inpp r1,pA ; 
3f28   010b   andv r1,'h0FF ; 
3f29   00ff
3f2a   0107   subv r1,'h030 ; 
3f2b   0030
3f2c   3037   bra s,boot_p3 ; 
3f2d   fff5
3f2e   1113   cmprv r1,9 ;
3f2f   0009
3f30   f037   bra ls,boot_p4 ;
3f31   0005
3f32   010b   andv r1,'h00F ; 
3f33   000f
3f34   0103   addv r1,9 ;
3f35   0009
3f36   120c   boot_p4: or r2,r1 ;
3f37   0238   dcjnz c2,boot_p2 ;
3f38   3f21
3f39   0000   nop ; 
3f3a   8739   jmp t7,boot_p4b ; 
3f3b   3f42
3f3c   2a19   mvrr r2,ra ; 
3f3d   a028   str ra,prog_lng ; 
3f3e   3f8e
3f3f   873e   uflag t7 ; 
3f40   0037   bra boot_p0 ;
3f41   ffdb
3f42   111b   boot_p4b:mvpr p1,r1 ; 
3f43   1113   cmprv r1,boot_p ;
3f44   3f03
3f45   a037   bra hs,boot_p5 ;
3f46   0004
3f47   212b   strpi r2,p1 ; 
3f48   0037   bra boot_p6 ;
3f49   0005
3f4a   0021   boot_p5: ldrv r0,"*" ;
3f4b   002a
3f4c   0037   bra boot_p7 ;
3f4d   0003
3f4e   0021   boot_p6: ldrv r0,"." ;
3f4f   002e
3f50   0a35   boot_p7: outpp r0,pA,0 ;
3f51   0000
3f52   0a11   dec ra ;
3f53   9037   bra nz,boot_p1 ;
3f54   ffca
3f55   102f   end_boot:stp p1,prog_cnt ;
3f56   3f8f
3f57   0021   ldrv r0,"#" ;
3f58   0023
3f59   0a35   outpp r0,pA,0 ;
3f5a   0000
3f5b   0121   end_loop:ldrv r1,0 ; 
3f5c   0000
3f5d   073f   uport f7 ; 
3f5e   0039   jmp reset_v ;
3f5f   0000
3f60   0c20   boot_r: ldr rc,prog_lng ;
3f61   3f8e
3f62   012e   ldpv p1,0 ;
3f63   0000
3f64   021f   boot_r1: ldcv c2,3 ;
3f65   0003
3f66   1224   ldrpi r2,p1 ;
3f67   3215   boot_r2: shl r,r2 ;
3f68   3215   shl r,r2 ;
3f69   3215   shl r,r2 ;
3f6a   3215   shl r,r2 ;
3f6b   2119   mvrr r2,r1 ;
3f6c   010b   andv r1,'h00F ;
3f6d   000f
3f6e   0103   addv r1,'h030 ;
3f6f   0030
3f70   1113   cmprv r1,'h039 ;
3f71   0039
3f72   f037   bra ls,boot_r3 ;
3f73   0003
3f74   0103   addv r1,'h027 ;
3f75   0027
3f76   b333   boot_r3: inpp r3,pB ; 
3f77   030b   andv r3,TXFULL ; 
3f78   0040
3f79   9037   bra nz,boot_r3 ; 
3f7a   fffc
3f7b   1a35   outpp r1,pA,0 ;
3f7c   0000
3f7d   0238   dcjnz c2,boot_r2 ;
3f7e   3f67
3f7f   0000   nop ; 
3f80   b333   boot_r4: inpp r3,pB ; 
3f81   030b   andv r3,TXFULL ; 
3f82   0040
3f83   9037   bra nz,boot_r4 ; 
3f84   fffc
3f85   0321   ldrv r3,'h00A ;
3f86   000a
3f87   3a35   outpp r3,pA,0 ;
3f88   0000
3f89   0c11   dec rc ; 
3f8a   9037   bra nz,boot_r1 ;
3f8b   ffd9
3f8c   0039   jmp end_loop ;
3f8d   3f5b
3f8e   0000   prog_lng:dw 0 ; 
3f8f   0000   prog_cnt:dw 0 ; 